	.section	__TEXT,__text,regular,pure_instructions
	.macosx_version_min 10, 11
	.file	1 "/Users/JRod/Desktop/OpenCVTemplate/419-project/OpenCV3Import/OpenCV3Import" "Constants.hpp"
	.file	2 "/Applications/Xcode.app/Contents/Developer/Toolchains/XcodeDefault.xctoolchain/usr/bin/../include/c++/v1" "__config"
	.file	3 "/Applications/Xcode.app/Contents/Developer/Toolchains/XcodeDefault.xctoolchain/usr/bin/../include/c++/v1" "ios"
	.file	4 "/Applications/Xcode.app/Contents/Developer/Toolchains/XcodeDefault.xctoolchain/usr/bin/../lib/clang/8.0.0/include" "stddef.h"
	.file	5 "/Applications/Xcode.app/Contents/Developer/Platforms/MacOSX.platform/Developer/SDKs/MacOSX.sdk/usr/include/i386" "_types.h"
	.file	6 "/Applications/Xcode.app/Contents/Developer/Platforms/MacOSX.platform/Developer/SDKs/MacOSX.sdk/usr/include/sys/_types" "_size_t.h"
	.file	7 "/Applications/Xcode.app/Contents/Developer/Toolchains/XcodeDefault.xctoolchain/usr/bin/../include/c++/v1" "__locale"
	.file	8 "/Applications/Xcode.app/Contents/Developer/Toolchains/XcodeDefault.xctoolchain/usr/bin/../include/c++/v1" "string"
	.file	9 "/Applications/Xcode.app/Contents/Developer/Toolchains/XcodeDefault.xctoolchain/usr/bin/../include/c++/v1" "memory"
	.file	10 "/Applications/Xcode.app/Contents/Developer/Toolchains/XcodeDefault.xctoolchain/usr/bin/../include/c++/v1" "type_traits"
	.file	11 "/Applications/Xcode.app/Contents/Developer/Toolchains/XcodeDefault.xctoolchain/usr/bin/../include/c++/v1" "initializer_list"
	.file	12 "/Applications/Xcode.app/Contents/Developer/Toolchains/XcodeDefault.xctoolchain/usr/bin/../include/c++/v1" "iosfwd"
	.file	13 "/Applications/Xcode.app/Contents/Developer/Toolchains/XcodeDefault.xctoolchain/usr/bin/../include/c++/v1" "mutex"
	.file	14 "/Applications/Xcode.app/Contents/Developer/Platforms/MacOSX.platform/Developer/SDKs/MacOSX.sdk/usr/include/sys/_types" "_int32_t.h"
	.file	15 "/Applications/Xcode.app/Contents/Developer/Toolchains/XcodeDefault.xctoolchain/usr/bin/../include/c++/v1" "streambuf"
	.file	16 "/Applications/Xcode.app/Contents/Developer/Toolchains/XcodeDefault.xctoolchain/usr/bin/../include/c++/v1" "fstream"
	.file	17 "/Applications/Xcode.app/Contents/Developer/Platforms/MacOSX.platform/Developer/SDKs/MacOSX.sdk/usr/include" "stdio.h"
	.file	18 "/Applications/Xcode.app/Contents/Developer/Platforms/MacOSX.platform/Developer/SDKs/MacOSX.sdk/usr/include/sys" "_types.h"
	.file	19 "/Applications/Xcode.app/Contents/Developer/Platforms/MacOSX.platform/Developer/SDKs/MacOSX.sdk/usr/include/sys/_types" "_mbstate_t.h"
	.file	20 "/Applications/Xcode.app/Contents/Developer/Toolchains/XcodeDefault.xctoolchain/usr/bin/../include/c++/v1" "iterator"
	.file	21 "/Applications/Xcode.app/Contents/Developer/Toolchains/XcodeDefault.xctoolchain/usr/bin/../include/c++/v1" "ostream"
	.file	22 "/Applications/Xcode.app/Contents/Developer/Platforms/MacOSX.platform/Developer/SDKs/MacOSX.sdk/usr/include" "string.h"
	.file	23 "/Applications/Xcode.app/Contents/Developer/Platforms/MacOSX.platform/Developer/SDKs/MacOSX.sdk/usr/include" "ctype.h"
	.file	24 "/Applications/Xcode.app/Contents/Developer/Platforms/MacOSX.platform/Developer/SDKs/MacOSX.sdk/usr/include/sys/_types" "_wint_t.h"
	.file	25 "/Applications/Xcode.app/Contents/Developer/Platforms/MacOSX.platform/Developer/SDKs/MacOSX.sdk/usr/include" "_types.h"
	.file	26 "/Applications/Xcode.app/Contents/Developer/Platforms/MacOSX.platform/Developer/SDKs/MacOSX.sdk/usr/include/_types" "_wctrans_t.h"
	.file	27 "/Applications/Xcode.app/Contents/Developer/Platforms/MacOSX.platform/Developer/SDKs/MacOSX.sdk/usr/include/_types" "_wctype_t.h"
	.file	28 "/Applications/Xcode.app/Contents/Developer/Platforms/MacOSX.platform/Developer/SDKs/MacOSX.sdk/usr/include" "_wctype.h"
	.file	29 "/Applications/Xcode.app/Contents/Developer/Platforms/MacOSX.platform/Developer/SDKs/MacOSX.sdk/usr/include" "wctype.h"
	.file	30 "/Applications/Xcode.app/Contents/Developer/Platforms/MacOSX.platform/Developer/SDKs/MacOSX.sdk/usr/include" "time.h"
	.file	31 "/Applications/Xcode.app/Contents/Developer/Platforms/MacOSX.platform/Developer/SDKs/MacOSX.sdk/usr/include" "wchar.h"
	.file	32 "/Applications/Xcode.app/Contents/Developer/Toolchains/XcodeDefault.xctoolchain/usr/bin/../lib/clang/8.0.0/include" "__stddef_max_align_t.h"
	.file	33 "/Applications/Xcode.app/Contents/Developer/Platforms/MacOSX.platform/Developer/SDKs/MacOSX.sdk/usr/include/sys/_types" "_int8_t.h"
	.file	34 "/Applications/Xcode.app/Contents/Developer/Platforms/MacOSX.platform/Developer/SDKs/MacOSX.sdk/usr/include/sys/_types" "_int16_t.h"
	.file	35 "/Applications/Xcode.app/Contents/Developer/Platforms/MacOSX.platform/Developer/SDKs/MacOSX.sdk/usr/include/sys/_types" "_int64_t.h"
	.file	36 "/Applications/Xcode.app/Contents/Developer/Platforms/MacOSX.platform/Developer/SDKs/MacOSX.sdk/usr/include/_types" "_uint8_t.h"
	.file	37 "/Applications/Xcode.app/Contents/Developer/Platforms/MacOSX.platform/Developer/SDKs/MacOSX.sdk/usr/include/_types" "_uint16_t.h"
	.file	38 "/Applications/Xcode.app/Contents/Developer/Platforms/MacOSX.platform/Developer/SDKs/MacOSX.sdk/usr/include/_types" "_uint32_t.h"
	.file	39 "/Applications/Xcode.app/Contents/Developer/Platforms/MacOSX.platform/Developer/SDKs/MacOSX.sdk/usr/include/_types" "_uint64_t.h"
	.file	40 "/Applications/Xcode.app/Contents/Developer/Platforms/MacOSX.platform/Developer/SDKs/MacOSX.sdk/usr/include" "stdint.h"
	.file	41 "/Applications/Xcode.app/Contents/Developer/Platforms/MacOSX.platform/Developer/SDKs/MacOSX.sdk/usr/include/sys/_types" "_intptr_t.h"
	.file	42 "/Applications/Xcode.app/Contents/Developer/Platforms/MacOSX.platform/Developer/SDKs/MacOSX.sdk/usr/include/sys/_types" "_uintptr_t.h"
	.file	43 "/Applications/Xcode.app/Contents/Developer/Platforms/MacOSX.platform/Developer/SDKs/MacOSX.sdk/usr/include/_types" "_intmax_t.h"
	.file	44 "/Applications/Xcode.app/Contents/Developer/Platforms/MacOSX.platform/Developer/SDKs/MacOSX.sdk/usr/include/_types" "_uintmax_t.h"
	.file	45 "/Applications/Xcode.app/Contents/Developer/Platforms/MacOSX.platform/Developer/SDKs/MacOSX.sdk/usr/include/sys/_types" "_clock_t.h"
	.file	46 "/Applications/Xcode.app/Contents/Developer/Platforms/MacOSX.platform/Developer/SDKs/MacOSX.sdk/usr/include/sys/_types" "_time_t.h"
	.file	47 "/Applications/Xcode.app/Contents/Developer/Platforms/MacOSX.platform/Developer/SDKs/MacOSX.sdk/usr/include" "stdlib.h"
	.file	48 "/Applications/Xcode.app/Contents/Developer/Platforms/MacOSX.platform/Developer/SDKs/MacOSX.sdk/usr/include" "math.h"
	.file	49 "/usr/local/include/GRT/CoreAlgorithms/ParticleFilter/../../Util" "GRTTypedefs.h"
	.file	50 "/Users/JRod/Desktop/OpenCVTemplate/419-project/OpenCV3Import/OpenCV3Import" "FileIO.cpp"
	.globl	__ZN6FileIO13appendGestureEN3GRT11VectorFloatE5Spell
	.align	4, 0x90
__ZN6FileIO13appendGestureEN3GRT11VectorFloatE5Spell: ## @_ZN6FileIO13appendGestureEN3GRT11VectorFloatE5Spell
Lfunc_begin0:
	.loc	50 15 0                 ## /Users/JRod/Desktop/OpenCVTemplate/419-project/OpenCV3Import/OpenCV3Import/FileIO.cpp:15:0
	.cfi_startproc
	.cfi_personality 155, ___gxx_personality_v0
	.cfi_lsda 16, Lexception0
## BB#0:
	pushq	%rbp
Ltmp38:
	.cfi_def_cfa_offset 16
Ltmp39:
	.cfi_offset %rbp, -16
	movq	%rsp, %rbp
Ltmp40:
	.cfi_def_cfa_register %rbp
	subq	$1696, %rsp             ## imm = 0x6A0
	##DEBUG_VALUE: appendGesture:frameFloats <- [%RSI+0]
	##DEBUG_VALUE: appendGesture:this <- [%RBP+-1480]
	##DEBUG_VALUE: appendGesture:spell <- [%RBP+-1484]
	movq	___stack_chk_guard@GOTPCREL(%rip), %rax
	movq	(%rax), %rax
	movq	%rax, -8(%rbp)
	movq	%rdi, -1480(%rbp)
	movl	%edx, -1484(%rbp)
	leaq	-576(%rbp), %rax
	.loc	50 16 14 prologue_end   ## /Users/JRod/Desktop/OpenCVTemplate/419-project/OpenCV3Import/OpenCV3Import/FileIO.cpp:16:14
Ltmp41:
	movq	%rax, -1456(%rbp)
	.loc	16 1192 1               ## /Applications/Xcode.app/Contents/Developer/Toolchains/XcodeDefault.xctoolchain/usr/bin/../include/c++/v1/fstream:1192:1
Ltmp42:
	leaq	-160(%rbp), %rdi
	.loc	16 1164 5               ## /Applications/Xcode.app/Contents/Developer/Toolchains/XcodeDefault.xctoolchain/usr/bin/../include/c++/v1/fstream:1164:5
	movq	%rdi, -1448(%rbp)
	.loc	3 631 5                 ## /Applications/Xcode.app/Contents/Developer/Toolchains/XcodeDefault.xctoolchain/usr/bin/../include/c++/v1/ios:631:5
Ltmp43:
	movq	%rdi, -1440(%rbp)
	.loc	3 333 16                ## /Applications/Xcode.app/Contents/Developer/Toolchains/XcodeDefault.xctoolchain/usr/bin/../include/c++/v1/ios:333:16
Ltmp44:
	movq	__ZTVNSt3__18ios_baseE@GOTPCREL(%rip), %rdi
	addq	$16, %rdi
	movq	%rdi, -160(%rbp)
Ltmp45:
	.loc	3 631 17                ## /Applications/Xcode.app/Contents/Developer/Toolchains/XcodeDefault.xctoolchain/usr/bin/../include/c++/v1/ios:631:17
	movq	__ZTVNSt3__19basic_iosIcNS_11char_traitsIcEEEE@GOTPCREL(%rip), %rdi
	addq	$16, %rdi
	movq	%rdi, -160(%rbp)
Ltmp46:
	.loc	16 1192 1               ## /Applications/Xcode.app/Contents/Developer/Toolchains/XcodeDefault.xctoolchain/usr/bin/../include/c++/v1/fstream:1192:1
	movq	__ZTVNSt3__114basic_ofstreamIcNS_11char_traitsIcEEEE@GOTPCREL(%rip), %rdi
	movq	%rdi, %rcx
	addq	$24, %rcx
	movq	%rcx, -576(%rbp)
	addq	$64, %rdi
	movq	%rdi, -160(%rbp)
	.loc	16 1191 46              ## /Applications/Xcode.app/Contents/Developer/Toolchains/XcodeDefault.xctoolchain/usr/bin/../include/c++/v1/fstream:1191:46
	leaq	-568(%rbp), %rcx
	.loc	16 1191 7 is_stmt 0     ## /Applications/Xcode.app/Contents/Developer/Toolchains/XcodeDefault.xctoolchain/usr/bin/../include/c++/v1/fstream:1191:7
	movq	%rax, -1416(%rbp)
	movq	__ZTTNSt3__114basic_ofstreamIcNS_11char_traitsIcEEEE@GOTPCREL(%rip), %rdi
	addq	$8, %rdi
	movq	%rdi, -1424(%rbp)
	movq	%rcx, -1432(%rbp)
	movq	-1416(%rbp), %rcx
	movq	-1424(%rbp), %rdi
	.loc	21 280 1 is_stmt 1      ## /Applications/Xcode.app/Contents/Developer/Toolchains/XcodeDefault.xctoolchain/usr/bin/../include/c++/v1/ostream:280:1
Ltmp47:
	movq	(%rdi), %r8
	movq	%r8, (%rcx)
	movq	8(%rdi), %rdi
	movq	-24(%r8), %r8
	movq	%rdi, (%rcx,%r8)
	.loc	21 281 5                ## /Applications/Xcode.app/Contents/Developer/Toolchains/XcodeDefault.xctoolchain/usr/bin/../include/c++/v1/ostream:281:5
Ltmp48:
	movq	(%rcx), %rdi
	movq	-24(%rdi), %rdi
	addq	%rdi, %rcx
	.loc	21 281 16 is_stmt 0     ## /Applications/Xcode.app/Contents/Developer/Toolchains/XcodeDefault.xctoolchain/usr/bin/../include/c++/v1/ostream:281:16
	movq	-1432(%rbp), %rdi
	.loc	21 281 5                ## /Applications/Xcode.app/Contents/Developer/Toolchains/XcodeDefault.xctoolchain/usr/bin/../include/c++/v1/ostream:281:5
	movq	%rcx, -1400(%rbp)
	movq	%rdi, -1408(%rbp)
	movq	-1400(%rbp), %rcx
	.loc	3 668 5 is_stmt 1       ## /Applications/Xcode.app/Contents/Developer/Toolchains/XcodeDefault.xctoolchain/usr/bin/../include/c++/v1/ios:668:5
Ltmp49:
Ltmp0:
	movq	%rdi, -1512(%rbp)       ## 8-byte Spill
	movq	%rcx, %rdi
	movq	-1512(%rbp), %r8        ## 8-byte Reload
	movq	%rsi, -1520(%rbp)       ## 8-byte Spill
Ltmp50:
	##DEBUG_VALUE: appendGesture:frameFloats <-  [complex expression]
	movq	%r8, %rsi
	movq	%rax, -1528(%rbp)       ## 8-byte Spill
	movq	%rcx, -1536(%rbp)       ## 8-byte Spill
	callq	__ZNSt3__18ios_base4initEPv
Ltmp1:
	jmp	LBB0_1
LBB0_1:
	##DEBUG_VALUE: appendGesture:frameFloats <-  [complex expression]
	##DEBUG_VALUE: appendGesture:spell <- [%RBP+-1484]
	##DEBUG_VALUE: appendGesture:this <- [%RBP+-1480]
	.loc	3 669 12                ## /Applications/Xcode.app/Contents/Developer/Toolchains/XcodeDefault.xctoolchain/usr/bin/../include/c++/v1/ios:669:12
	movq	-1536(%rbp), %rax       ## 8-byte Reload
	movq	$0, 136(%rax)
	.loc	3 670 15                ## /Applications/Xcode.app/Contents/Developer/Toolchains/XcodeDefault.xctoolchain/usr/bin/../include/c++/v1/ios:670:15
	callq	__ZNSt3__111char_traitsIcE3eofEv
	.loc	3 670 13 is_stmt 0      ## /Applications/Xcode.app/Contents/Developer/Toolchains/XcodeDefault.xctoolchain/usr/bin/../include/c++/v1/ios:670:13
	movq	-1536(%rbp), %rcx       ## 8-byte Reload
	movl	%eax, 144(%rcx)
Ltmp51:
	.loc	16 1192 1 is_stmt 1     ## /Applications/Xcode.app/Contents/Developer/Toolchains/XcodeDefault.xctoolchain/usr/bin/../include/c++/v1/fstream:1192:1
	movq	__ZTVNSt3__114basic_ofstreamIcNS_11char_traitsIcEEEE@GOTPCREL(%rip), %rdx
	movq	%rdx, %rsi
	addq	$24, %rsi
	movq	-1528(%rbp), %rdi       ## 8-byte Reload
	movq	%rsi, (%rdi)
	addq	$64, %rdx
	movq	%rdx, 416(%rdi)
	.loc	16 1164 5               ## /Applications/Xcode.app/Contents/Developer/Toolchains/XcodeDefault.xctoolchain/usr/bin/../include/c++/v1/fstream:1164:5
	addq	$8, %rdi
Ltmp3:
	callq	__ZNSt3__113basic_filebufIcNS_11char_traitsIcEEEC1Ev
Ltmp4:
	jmp	LBB0_5
LBB0_2:
	##DEBUG_VALUE: appendGesture:frameFloats <-  [complex expression]
	##DEBUG_VALUE: appendGesture:spell <- [%RBP+-1484]
	##DEBUG_VALUE: appendGesture:this <- [%RBP+-1480]
Ltmp2:
	.loc	16 1193 1               ## /Applications/Xcode.app/Contents/Developer/Toolchains/XcodeDefault.xctoolchain/usr/bin/../include/c++/v1/fstream:1193:1
	movl	%edx, %ecx
	movq	%rax, -1464(%rbp)
	movl	%ecx, -1468(%rbp)
	jmp	LBB0_4
LBB0_3:
	##DEBUG_VALUE: appendGesture:frameFloats <-  [complex expression]
	##DEBUG_VALUE: appendGesture:spell <- [%RBP+-1484]
	##DEBUG_VALUE: appendGesture:this <- [%RBP+-1480]
Ltmp5:
	movq	__ZTTNSt3__114basic_ofstreamIcNS_11char_traitsIcEEEE@GOTPCREL(%rip), %rcx
	addq	$8, %rcx
	movl	%edx, %esi
	movq	%rax, -1464(%rbp)
	movl	%esi, -1468(%rbp)
	.loc	16 1193 1 is_stmt 0     ## /Applications/Xcode.app/Contents/Developer/Toolchains/XcodeDefault.xctoolchain/usr/bin/../include/c++/v1/fstream:1193:1
Ltmp52:
	movq	-1528(%rbp), %rax       ## 8-byte Reload
	movq	%rax, %rdi
	movq	%rcx, %rsi
	callq	__ZNSt3__113basic_ostreamIcNS_11char_traitsIcEEED2Ev
LBB0_4:
	##DEBUG_VALUE: appendGesture:frameFloats <-  [complex expression]
	##DEBUG_VALUE: appendGesture:spell <- [%RBP+-1484]
	##DEBUG_VALUE: appendGesture:this <- [%RBP+-1480]
	movq	-1528(%rbp), %rax       ## 8-byte Reload
	addq	$416, %rax              ## imm = 0x1A0
	movq	%rax, %rdi
	callq	__ZNSt3__19basic_iosIcNS_11char_traitsIcEEED2Ev
	movq	-1464(%rbp), %rax
	movq	%rax, -1544(%rbp)       ## 8-byte Spill
	jmp	LBB0_47
Ltmp53:
LBB0_5:
	##DEBUG_VALUE: appendGesture:frameFloats <-  [complex expression]
	##DEBUG_VALUE: appendGesture:spell <- [%RBP+-1484]
	##DEBUG_VALUE: appendGesture:this <- [%RBP+-1480]
	##DEBUG_VALUE: appendGesture:filetest <- [%RBP+-1152]
	leaq	-1152(%rbp), %rax
	.loc	50 40 14 is_stmt 1      ## /Users/JRod/Desktop/OpenCVTemplate/419-project/OpenCV3Import/OpenCV3Import/FileIO.cpp:40:14
	movq	%rax, -1360(%rbp)
	leaq	L_.str(%rip), %rax
	movq	%rax, -1368(%rbp)
	movl	$8, -1372(%rbp)
	movq	-1360(%rbp), %rax
	.loc	16 1049 1               ## /Applications/Xcode.app/Contents/Developer/Toolchains/XcodeDefault.xctoolchain/usr/bin/../include/c++/v1/fstream:1049:1
Ltmp54:
	movq	%rax, %rcx
	addq	$424, %rcx              ## imm = 0x1A8
	.loc	16 1013 14              ## /Applications/Xcode.app/Contents/Developer/Toolchains/XcodeDefault.xctoolchain/usr/bin/../include/c++/v1/fstream:1013:14
	movq	%rcx, -1352(%rbp)
	.loc	3 631 5                 ## /Applications/Xcode.app/Contents/Developer/Toolchains/XcodeDefault.xctoolchain/usr/bin/../include/c++/v1/ios:631:5
Ltmp55:
	movq	%rcx, -1344(%rbp)
	.loc	3 333 16                ## /Applications/Xcode.app/Contents/Developer/Toolchains/XcodeDefault.xctoolchain/usr/bin/../include/c++/v1/ios:333:16
Ltmp56:
	movq	__ZTVNSt3__18ios_baseE@GOTPCREL(%rip), %rcx
	addq	$16, %rcx
	movq	%rcx, 424(%rax)
Ltmp57:
	.loc	3 631 17                ## /Applications/Xcode.app/Contents/Developer/Toolchains/XcodeDefault.xctoolchain/usr/bin/../include/c++/v1/ios:631:17
	movq	__ZTVNSt3__19basic_iosIcNS_11char_traitsIcEEEE@GOTPCREL(%rip), %rcx
	addq	$16, %rcx
	movq	%rcx, 424(%rax)
Ltmp58:
	.loc	16 1049 1               ## /Applications/Xcode.app/Contents/Developer/Toolchains/XcodeDefault.xctoolchain/usr/bin/../include/c++/v1/fstream:1049:1
	movq	__ZTVNSt3__114basic_ifstreamIcNS_11char_traitsIcEEEE@GOTPCREL(%rip), %rcx
	movq	%rcx, %rdx
	addq	$24, %rdx
	movq	%rdx, (%rax)
	addq	$64, %rcx
	movq	%rcx, 424(%rax)
	.loc	16 1048 46              ## /Applications/Xcode.app/Contents/Developer/Toolchains/XcodeDefault.xctoolchain/usr/bin/../include/c++/v1/fstream:1048:46
	movq	%rax, %rcx
	addq	$16, %rcx
	.loc	16 1048 7 is_stmt 0     ## /Applications/Xcode.app/Contents/Developer/Toolchains/XcodeDefault.xctoolchain/usr/bin/../include/c++/v1/fstream:1048:7
	movq	%rax, -1320(%rbp)
	movq	__ZTTNSt3__114basic_ifstreamIcNS_11char_traitsIcEEEE@GOTPCREL(%rip), %rdx
	addq	$8, %rdx
	movq	%rdx, -1328(%rbp)
	movq	%rcx, -1336(%rbp)
	movq	-1320(%rbp), %rcx
	movq	-1328(%rbp), %rdx
	.file	51 "/Applications/Xcode.app/Contents/Developer/Toolchains/XcodeDefault.xctoolchain/usr/bin/../include/c++/v1" "istream"
	.loc	51 310 1 is_stmt 1      ## /Applications/Xcode.app/Contents/Developer/Toolchains/XcodeDefault.xctoolchain/usr/bin/../include/c++/v1/istream:310:1
Ltmp59:
	movq	(%rdx), %rsi
	movq	%rsi, (%rcx)
	movq	8(%rdx), %rdx
	movq	-24(%rsi), %rsi
	movq	%rdx, (%rcx,%rsi)
	.loc	51 309 7                ## /Applications/Xcode.app/Contents/Developer/Toolchains/XcodeDefault.xctoolchain/usr/bin/../include/c++/v1/istream:309:7
	movq	$0, 8(%rcx)
	.loc	51 311 5                ## /Applications/Xcode.app/Contents/Developer/Toolchains/XcodeDefault.xctoolchain/usr/bin/../include/c++/v1/istream:311:5
Ltmp60:
	movq	(%rcx), %rdx
	movq	-24(%rdx), %rdx
	addq	%rdx, %rcx
	.loc	51 311 16 is_stmt 0     ## /Applications/Xcode.app/Contents/Developer/Toolchains/XcodeDefault.xctoolchain/usr/bin/../include/c++/v1/istream:311:16
	movq	-1336(%rbp), %rdx
	.loc	51 311 5                ## /Applications/Xcode.app/Contents/Developer/Toolchains/XcodeDefault.xctoolchain/usr/bin/../include/c++/v1/istream:311:5
	movq	%rcx, -1304(%rbp)
	movq	%rdx, -1312(%rbp)
	movq	-1304(%rbp), %rcx
	.loc	3 668 5 is_stmt 1       ## /Applications/Xcode.app/Contents/Developer/Toolchains/XcodeDefault.xctoolchain/usr/bin/../include/c++/v1/ios:668:5
Ltmp61:
Ltmp6:
	movq	%rcx, %rdi
	movq	%rdx, %rsi
	movq	%rax, -1552(%rbp)       ## 8-byte Spill
	movq	%rcx, -1560(%rbp)       ## 8-byte Spill
	callq	__ZNSt3__18ios_base4initEPv
Ltmp7:
	jmp	LBB0_6
LBB0_6:
	##DEBUG_VALUE: appendGesture:filetest <- [%RBP+-1152]
	##DEBUG_VALUE: appendGesture:frameFloats <-  [complex expression]
	##DEBUG_VALUE: appendGesture:spell <- [%RBP+-1484]
	##DEBUG_VALUE: appendGesture:this <- [%RBP+-1480]
	.loc	3 669 12                ## /Applications/Xcode.app/Contents/Developer/Toolchains/XcodeDefault.xctoolchain/usr/bin/../include/c++/v1/ios:669:12
	movq	-1560(%rbp), %rax       ## 8-byte Reload
	movq	$0, 136(%rax)
	.loc	3 670 15                ## /Applications/Xcode.app/Contents/Developer/Toolchains/XcodeDefault.xctoolchain/usr/bin/../include/c++/v1/ios:670:15
	callq	__ZNSt3__111char_traitsIcE3eofEv
	.loc	3 670 13 is_stmt 0      ## /Applications/Xcode.app/Contents/Developer/Toolchains/XcodeDefault.xctoolchain/usr/bin/../include/c++/v1/ios:670:13
	movq	-1560(%rbp), %rcx       ## 8-byte Reload
	movl	%eax, 144(%rcx)
Ltmp62:
	.loc	16 1049 1 is_stmt 1     ## /Applications/Xcode.app/Contents/Developer/Toolchains/XcodeDefault.xctoolchain/usr/bin/../include/c++/v1/fstream:1049:1
	movq	__ZTVNSt3__114basic_ifstreamIcNS_11char_traitsIcEEEE@GOTPCREL(%rip), %rdx
	movq	%rdx, %rsi
	addq	$24, %rsi
	movq	-1552(%rbp), %rdi       ## 8-byte Reload
	movq	%rsi, (%rdi)
	addq	$64, %rdx
	movq	%rdx, 424(%rdi)
	.loc	16 1013 14              ## /Applications/Xcode.app/Contents/Developer/Toolchains/XcodeDefault.xctoolchain/usr/bin/../include/c++/v1/fstream:1013:14
	addq	$16, %rdi
Ltmp9:
	movq	%rdi, -1568(%rbp)       ## 8-byte Spill
	callq	__ZNSt3__113basic_filebufIcNS_11char_traitsIcEEEC1Ev
Ltmp10:
	jmp	LBB0_7
LBB0_7:
	##DEBUG_VALUE: appendGesture:filetest <- [%RBP+-1152]
	##DEBUG_VALUE: appendGesture:frameFloats <-  [complex expression]
	##DEBUG_VALUE: appendGesture:spell <- [%RBP+-1484]
	##DEBUG_VALUE: appendGesture:this <- [%RBP+-1480]
	.loc	16 1050 9               ## /Applications/Xcode.app/Contents/Developer/Toolchains/XcodeDefault.xctoolchain/usr/bin/../include/c++/v1/fstream:1050:9
Ltmp63:
	movq	-1552(%rbp), %rax       ## 8-byte Reload
	addq	$16, %rax
	.loc	16 1050 20 is_stmt 0    ## /Applications/Xcode.app/Contents/Developer/Toolchains/XcodeDefault.xctoolchain/usr/bin/../include/c++/v1/fstream:1050:20
	movq	-1368(%rbp), %rsi
	.loc	16 1050 25              ## /Applications/Xcode.app/Contents/Developer/Toolchains/XcodeDefault.xctoolchain/usr/bin/../include/c++/v1/fstream:1050:25
	movl	-1372(%rbp), %ecx
	.loc	16 1050 32              ## /Applications/Xcode.app/Contents/Developer/Toolchains/XcodeDefault.xctoolchain/usr/bin/../include/c++/v1/fstream:1050:32
	orl	$8, %ecx
	.loc	16 1050 9               ## /Applications/Xcode.app/Contents/Developer/Toolchains/XcodeDefault.xctoolchain/usr/bin/../include/c++/v1/fstream:1050:9
Ltmp12:
	movq	%rax, %rdi
	movl	%ecx, %edx
	callq	__ZNSt3__113basic_filebufIcNS_11char_traitsIcEEE4openEPKcj
Ltmp13:
	movq	%rax, -1576(%rbp)       ## 8-byte Spill
	jmp	LBB0_8
LBB0_8:
	##DEBUG_VALUE: appendGesture:filetest <- [%RBP+-1152]
	##DEBUG_VALUE: appendGesture:frameFloats <-  [complex expression]
	##DEBUG_VALUE: appendGesture:spell <- [%RBP+-1484]
	##DEBUG_VALUE: appendGesture:this <- [%RBP+-1480]
	.loc	16 1050 48              ## /Applications/Xcode.app/Contents/Developer/Toolchains/XcodeDefault.xctoolchain/usr/bin/../include/c++/v1/fstream:1050:48
	movq	-1576(%rbp), %rax       ## 8-byte Reload
	cmpq	$0, %rax
Ltmp64:
	.loc	16 1050 9               ## /Applications/Xcode.app/Contents/Developer/Toolchains/XcodeDefault.xctoolchain/usr/bin/../include/c++/v1/fstream:1050:9
	jne	LBB0_16
## BB#9:
	##DEBUG_VALUE: appendGesture:filetest <- [%RBP+-1152]
	##DEBUG_VALUE: appendGesture:frameFloats <-  [complex expression]
	##DEBUG_VALUE: appendGesture:spell <- [%RBP+-1484]
	##DEBUG_VALUE: appendGesture:this <- [%RBP+-1480]
	.loc	16 1051 9 is_stmt 1     ## /Applications/Xcode.app/Contents/Developer/Toolchains/XcodeDefault.xctoolchain/usr/bin/../include/c++/v1/fstream:1051:9
Ltmp65:
	movq	-1552(%rbp), %rax       ## 8-byte Reload
	movq	(%rax), %rcx
	movq	-24(%rcx), %rcx
	addq	%rcx, %rax
	movq	%rax, -1288(%rbp)
	movl	$4, -1292(%rbp)
	movq	-1288(%rbp), %rax
	.loc	3 589 59                ## /Applications/Xcode.app/Contents/Developer/Toolchains/XcodeDefault.xctoolchain/usr/bin/../include/c++/v1/ios:589:59
Ltmp66:
	movq	%rax, -1272(%rbp)
	movl	$4, -1276(%rbp)
	movq	-1272(%rbp), %rax
	.loc	3 524 11                ## /Applications/Xcode.app/Contents/Developer/Toolchains/XcodeDefault.xctoolchain/usr/bin/../include/c++/v1/ios:524:11
Ltmp67:
	movl	32(%rax), %edx
	.loc	3 524 22 is_stmt 0      ## /Applications/Xcode.app/Contents/Developer/Toolchains/XcodeDefault.xctoolchain/usr/bin/../include/c++/v1/ios:524:22
	orl	$4, %edx
	.loc	3 524 5                 ## /Applications/Xcode.app/Contents/Developer/Toolchains/XcodeDefault.xctoolchain/usr/bin/../include/c++/v1/ios:524:5
Ltmp14:
	movq	%rax, %rdi
	movl	%edx, %esi
	callq	__ZNSt3__18ios_base5clearEj
Ltmp15:
	jmp	LBB0_10
Ltmp68:
LBB0_10:
	##DEBUG_VALUE: appendGesture:filetest <- [%RBP+-1152]
	##DEBUG_VALUE: appendGesture:frameFloats <-  [complex expression]
	##DEBUG_VALUE: appendGesture:spell <- [%RBP+-1484]
	##DEBUG_VALUE: appendGesture:this <- [%RBP+-1480]
	.loc	16 1051 9 is_stmt 1     ## /Applications/Xcode.app/Contents/Developer/Toolchains/XcodeDefault.xctoolchain/usr/bin/../include/c++/v1/fstream:1051:9
	jmp	LBB0_16
Ltmp69:
LBB0_11:
	##DEBUG_VALUE: appendGesture:filetest <- [%RBP+-1152]
	##DEBUG_VALUE: appendGesture:frameFloats <-  [complex expression]
	##DEBUG_VALUE: appendGesture:spell <- [%RBP+-1484]
	##DEBUG_VALUE: appendGesture:this <- [%RBP+-1480]
Ltmp8:
	.loc	16 1052 1               ## /Applications/Xcode.app/Contents/Developer/Toolchains/XcodeDefault.xctoolchain/usr/bin/../include/c++/v1/fstream:1052:1
	movl	%edx, %ecx
	movq	%rax, -1384(%rbp)
	movl	%ecx, -1388(%rbp)
	jmp	LBB0_15
LBB0_12:
	##DEBUG_VALUE: appendGesture:filetest <- [%RBP+-1152]
	##DEBUG_VALUE: appendGesture:frameFloats <-  [complex expression]
	##DEBUG_VALUE: appendGesture:spell <- [%RBP+-1484]
	##DEBUG_VALUE: appendGesture:this <- [%RBP+-1480]
Ltmp11:
	movl	%edx, %ecx
	movq	%rax, -1384(%rbp)
	movl	%ecx, -1388(%rbp)
	jmp	LBB0_14
LBB0_13:
	##DEBUG_VALUE: appendGesture:filetest <- [%RBP+-1152]
	##DEBUG_VALUE: appendGesture:frameFloats <-  [complex expression]
	##DEBUG_VALUE: appendGesture:spell <- [%RBP+-1484]
	##DEBUG_VALUE: appendGesture:this <- [%RBP+-1480]
Ltmp16:
	.loc	16 1052 1 is_stmt 0     ## /Applications/Xcode.app/Contents/Developer/Toolchains/XcodeDefault.xctoolchain/usr/bin/../include/c++/v1/fstream:1052:1
Ltmp70:
	movl	%edx, %ecx
	movq	%rax, -1384(%rbp)
	movl	%ecx, -1388(%rbp)
Ltmp71:
	.loc	16 1052 1               ## /Applications/Xcode.app/Contents/Developer/Toolchains/XcodeDefault.xctoolchain/usr/bin/../include/c++/v1/fstream:1052:1
	movq	-1568(%rbp), %rdi       ## 8-byte Reload
	callq	__ZNSt3__113basic_filebufIcNS_11char_traitsIcEEED1Ev
LBB0_14:
	##DEBUG_VALUE: appendGesture:filetest <- [%RBP+-1152]
	##DEBUG_VALUE: appendGesture:frameFloats <-  [complex expression]
	##DEBUG_VALUE: appendGesture:spell <- [%RBP+-1484]
	##DEBUG_VALUE: appendGesture:this <- [%RBP+-1480]
	movq	__ZTTNSt3__114basic_ifstreamIcNS_11char_traitsIcEEEE@GOTPCREL(%rip), %rax
	addq	$8, %rax
	movq	-1552(%rbp), %rcx       ## 8-byte Reload
	movq	%rcx, %rdi
	movq	%rax, %rsi
	callq	__ZNSt3__113basic_istreamIcNS_11char_traitsIcEEED2Ev
LBB0_15:
	##DEBUG_VALUE: appendGesture:filetest <- [%RBP+-1152]
	##DEBUG_VALUE: appendGesture:frameFloats <-  [complex expression]
	##DEBUG_VALUE: appendGesture:spell <- [%RBP+-1484]
	##DEBUG_VALUE: appendGesture:this <- [%RBP+-1480]
	movq	-1552(%rbp), %rax       ## 8-byte Reload
	addq	$424, %rax              ## imm = 0x1A8
	movq	%rax, %rdi
	callq	__ZNSt3__19basic_iosIcNS_11char_traitsIcEEED2Ev
	movq	-1384(%rbp), %rax
	movl	-1388(%rbp), %ecx
	movq	%rax, -1584(%rbp)       ## 8-byte Spill
	movl	%ecx, -1588(%rbp)       ## 4-byte Spill
	jmp	LBB0_21
Ltmp72:
LBB0_16:
	##DEBUG_VALUE: appendGesture:filetest <- [%RBP+-1152]
	##DEBUG_VALUE: appendGesture:frameFloats <-  [complex expression]
	##DEBUG_VALUE: appendGesture:spell <- [%RBP+-1484]
	##DEBUG_VALUE: appendGesture:this <- [%RBP+-1480]
	.loc	16 1052 1               ## /Applications/Xcode.app/Contents/Developer/Toolchains/XcodeDefault.xctoolchain/usr/bin/../include/c++/v1/fstream:1052:1
	jmp	LBB0_17
Ltmp73:
LBB0_17:
	##DEBUG_VALUE: appendGesture:filetest <- [%RBP+-1152]
	##DEBUG_VALUE: appendGesture:frameFloats <-  [complex expression]
	##DEBUG_VALUE: appendGesture:spell <- [%RBP+-1484]
	##DEBUG_VALUE: appendGesture:this <- [%RBP+-1480]
	leaq	-1152(%rbp), %rax
	.loc	50 42 9 is_stmt 1       ## /Users/JRod/Desktop/OpenCVTemplate/419-project/OpenCV3Import/OpenCV3Import/FileIO.cpp:42:9
Ltmp74:
	movq	-1152(%rbp), %rcx
	movq	-24(%rcx), %rcx
	addq	%rcx, %rax
	movq	%rax, -1264(%rbp)
	movq	-1264(%rbp), %rax
	.loc	3 585 40                ## /Applications/Xcode.app/Contents/Developer/Toolchains/XcodeDefault.xctoolchain/usr/bin/../include/c++/v1/ios:585:40
Ltmp75:
	movq	%rax, -1256(%rbp)
	movq	-1256(%rbp), %rax
	.loc	3 592 53                ## /Applications/Xcode.app/Contents/Developer/Toolchains/XcodeDefault.xctoolchain/usr/bin/../include/c++/v1/ios:592:53
Ltmp76:
	movq	%rax, -1248(%rbp)
	movq	-1248(%rbp), %rax
	.loc	3 545 13                ## /Applications/Xcode.app/Contents/Developer/Toolchains/XcodeDefault.xctoolchain/usr/bin/../include/c++/v1/ios:545:13
Ltmp77:
	movl	32(%rax), %edx
	.loc	3 545 24 is_stmt 0      ## /Applications/Xcode.app/Contents/Developer/Toolchains/XcodeDefault.xctoolchain/usr/bin/../include/c++/v1/ios:545:24
	andl	$5, %edx
	.loc	3 545 46                ## /Applications/Xcode.app/Contents/Developer/Toolchains/XcodeDefault.xctoolchain/usr/bin/../include/c++/v1/ios:545:46
	cmpl	$0, %edx
	setne	%sil
Ltmp78:
	.loc	3 585 39 is_stmt 1      ## /Applications/Xcode.app/Contents/Developer/Toolchains/XcodeDefault.xctoolchain/usr/bin/../include/c++/v1/ios:585:39
	xorb	$-1, %sil
	movb	%sil, -1589(%rbp)       ## 1-byte Spill
Ltmp79:
## BB#18:
	##DEBUG_VALUE: appendGesture:filetest <- [%RBP+-1152]
	##DEBUG_VALUE: appendGesture:frameFloats <-  [complex expression]
	##DEBUG_VALUE: appendGesture:spell <- [%RBP+-1484]
	##DEBUG_VALUE: appendGesture:this <- [%RBP+-1480]
	.loc	50 42 9                 ## /Users/JRod/Desktop/OpenCVTemplate/419-project/OpenCV3Import/OpenCV3Import/FileIO.cpp:42:9
	movb	-1589(%rbp), %al        ## 1-byte Reload
	testb	$1, %al
	jne	LBB0_19
	jmp	LBB0_23
LBB0_19:
	##DEBUG_VALUE: appendGesture:filetest <- [%RBP+-1152]
	##DEBUG_VALUE: appendGesture:frameFloats <-  [complex expression]
	##DEBUG_VALUE: appendGesture:spell <- [%RBP+-1484]
	##DEBUG_VALUE: appendGesture:this <- [%RBP+-1480]
	.loc	50 43 7                 ## /Users/JRod/Desktop/OpenCVTemplate/419-project/OpenCV3Import/OpenCV3Import/FileIO.cpp:43:7
Ltmp80:
Ltmp19:
	leaq	L_.str(%rip), %rsi
	leaq	-576(%rbp), %rdi
	movl	$1, %edx
	callq	__ZNSt3__114basic_ofstreamIcNS_11char_traitsIcEEE4openEPKcj
Ltmp20:
	jmp	LBB0_20
LBB0_20:
	##DEBUG_VALUE: appendGesture:filetest <- [%RBP+-1152]
	##DEBUG_VALUE: appendGesture:frameFloats <-  [complex expression]
	##DEBUG_VALUE: appendGesture:spell <- [%RBP+-1484]
	##DEBUG_VALUE: appendGesture:this <- [%RBP+-1480]
	.loc	50 44 5                 ## /Users/JRod/Desktop/OpenCVTemplate/419-project/OpenCV3Import/OpenCV3Import/FileIO.cpp:44:5
	jmp	LBB0_25
Ltmp81:
LBB0_21:
	##DEBUG_VALUE: appendGesture:filetest <- [%RBP+-1152]
	##DEBUG_VALUE: appendGesture:frameFloats <-  [complex expression]
	##DEBUG_VALUE: appendGesture:spell <- [%RBP+-1484]
	##DEBUG_VALUE: appendGesture:this <- [%RBP+-1480]
	.loc	50 60 1                 ## /Users/JRod/Desktop/OpenCVTemplate/419-project/OpenCV3Import/OpenCV3Import/FileIO.cpp:60:1
	movq	-1584(%rbp), %rax       ## 8-byte Reload
	movq	%rax, -1496(%rbp)
	movl	-1588(%rbp), %ecx       ## 4-byte Reload
	movl	%ecx, -1500(%rbp)
	jmp	LBB0_45
LBB0_22:
Ltmp37:
	leaq	-1152(%rbp), %rdi
	.loc	50 60 1 is_stmt 0       ## /Users/JRod/Desktop/OpenCVTemplate/419-project/OpenCV3Import/OpenCV3Import/FileIO.cpp:60:1
Ltmp82:
	movl	%edx, %ecx
	movq	%rax, -1496(%rbp)
	movl	%ecx, -1500(%rbp)
Ltmp83:
	.loc	50 60 1                 ## /Users/JRod/Desktop/OpenCVTemplate/419-project/OpenCV3Import/OpenCV3Import/FileIO.cpp:60:1
	callq	__ZNSt3__114basic_ifstreamIcNS_11char_traitsIcEEED1Ev
	jmp	LBB0_45
LBB0_23:
	##DEBUG_VALUE: appendGesture:filetest <- [%RBP+-1152]
	##DEBUG_VALUE: appendGesture:frameFloats <-  [complex expression]
	##DEBUG_VALUE: appendGesture:spell <- [%RBP+-1484]
	##DEBUG_VALUE: appendGesture:this <- [%RBP+-1480]
	.loc	50 47 7 is_stmt 1       ## /Users/JRod/Desktop/OpenCVTemplate/419-project/OpenCV3Import/OpenCV3Import/FileIO.cpp:47:7
Ltmp84:
Ltmp17:
	leaq	L_.str(%rip), %rsi
	leaq	-576(%rbp), %rdi
	movl	$16, %edx
	callq	__ZNSt3__114basic_ofstreamIcNS_11char_traitsIcEEE4openEPKcj
Ltmp18:
	jmp	LBB0_24
Ltmp85:
LBB0_24:
	##DEBUG_VALUE: appendGesture:filetest <- [%RBP+-1152]
	##DEBUG_VALUE: appendGesture:frameFloats <-  [complex expression]
	##DEBUG_VALUE: appendGesture:spell <- [%RBP+-1484]
	##DEBUG_VALUE: appendGesture:this <- [%RBP+-1480]
	jmp	LBB0_25
LBB0_25:
	##DEBUG_VALUE: appendGesture:filetest <- [%RBP+-1152]
	##DEBUG_VALUE: appendGesture:frameFloats <-  [complex expression]
	##DEBUG_VALUE: appendGesture:spell <- [%RBP+-1484]
	##DEBUG_VALUE: appendGesture:this <- [%RBP+-1480]
	.loc	50 52 15                ## /Users/JRod/Desktop/OpenCVTemplate/419-project/OpenCV3Import/OpenCV3Import/FileIO.cpp:52:15
	movl	-1484(%rbp), %esi
	.loc	50 52 12 is_stmt 0      ## /Users/JRod/Desktop/OpenCVTemplate/419-project/OpenCV3Import/OpenCV3Import/FileIO.cpp:52:12
Ltmp21:
	leaq	-576(%rbp), %rdi
	callq	__ZNSt3__113basic_ostreamIcNS_11char_traitsIcEEElsEi
Ltmp22:
	movq	%rax, -1600(%rbp)       ## 8-byte Spill
	jmp	LBB0_26
LBB0_26:
	##DEBUG_VALUE: appendGesture:filetest <- [%RBP+-1152]
	##DEBUG_VALUE: appendGesture:frameFloats <-  [complex expression]
	##DEBUG_VALUE: appendGesture:spell <- [%RBP+-1484]
	##DEBUG_VALUE: appendGesture:this <- [%RBP+-1480]
	.loc	50 52 21                ## /Users/JRod/Desktop/OpenCVTemplate/419-project/OpenCV3Import/OpenCV3Import/FileIO.cpp:52:21
Ltmp23:
	leaq	L_.str.1(%rip), %rsi
	movq	-1600(%rbp), %rdi       ## 8-byte Reload
	callq	__ZNSt3__1lsINS_11char_traitsIcEEEERNS_13basic_ostreamIcT_EES6_PKc
Ltmp24:
	movq	%rax, -1608(%rbp)       ## 8-byte Spill
	jmp	LBB0_27
LBB0_27:
	##DEBUG_VALUE: appendGesture:filetest <- [%RBP+-1152]
	##DEBUG_VALUE: appendGesture:frameFloats <-  [complex expression]
	##DEBUG_VALUE: appendGesture:spell <- [%RBP+-1484]
	##DEBUG_VALUE: appendGesture:this <- [%RBP+-1480]
	.loc	50 53 14 is_stmt 1      ## /Users/JRod/Desktop/OpenCVTemplate/419-project/OpenCV3Import/OpenCV3Import/FileIO.cpp:53:14
Ltmp86:
	movl	$1, -1504(%rbp)
LBB0_28:                                ## =>This Inner Loop Header: Depth=1
	.loc	50 53 21 is_stmt 0      ## /Users/JRod/Desktop/OpenCVTemplate/419-project/OpenCV3Import/OpenCV3Import/FileIO.cpp:53:21
Ltmp87:
	movl	-1504(%rbp), %eax
	.loc	50 53 25                ## /Users/JRod/Desktop/OpenCVTemplate/419-project/OpenCV3Import/OpenCV3Import/FileIO.cpp:53:25
	movl	_FRAMES_PER_GESTURE(%rip), %ecx
	.loc	50 53 44                ## /Users/JRod/Desktop/OpenCVTemplate/419-project/OpenCV3Import/OpenCV3Import/FileIO.cpp:53:44
	shll	$2, %ecx
	.loc	50 53 23                ## /Users/JRod/Desktop/OpenCVTemplate/419-project/OpenCV3Import/OpenCV3Import/FileIO.cpp:53:23
	cmpl	%ecx, %eax
Ltmp88:
	.loc	50 53 5                 ## /Users/JRod/Desktop/OpenCVTemplate/419-project/OpenCV3Import/OpenCV3Import/FileIO.cpp:53:5
	jge	LBB0_34
## BB#29:                               ##   in Loop: Header=BB0_28 Depth=1
	leaq	-576(%rbp), %rax
	.loc	50 54 19 is_stmt 1      ## /Users/JRod/Desktop/OpenCVTemplate/419-project/OpenCV3Import/OpenCV3Import/FileIO.cpp:54:19
Ltmp89:
	movq	-1520(%rbp), %rcx       ## 8-byte Reload
	addq	$8, %rcx
	.loc	50 54 31 is_stmt 0      ## /Users/JRod/Desktop/OpenCVTemplate/419-project/OpenCV3Import/OpenCV3Import/FileIO.cpp:54:31
	movslq	-1504(%rbp), %rdx
	.loc	50 54 19                ## /Users/JRod/Desktop/OpenCVTemplate/419-project/OpenCV3Import/OpenCV3Import/FileIO.cpp:54:19
	movq	%rcx, -1232(%rbp)
	movq	%rdx, -1240(%rbp)
	movq	-1232(%rbp), %rcx
	.file	52 "/Applications/Xcode.app/Contents/Developer/Toolchains/XcodeDefault.xctoolchain/usr/bin/../include/c++/v1" "vector"
	.loc	52 1500 27 is_stmt 1    ## /Applications/Xcode.app/Contents/Developer/Toolchains/XcodeDefault.xctoolchain/usr/bin/../include/c++/v1/vector:1500:27
Ltmp90:
	movq	-1240(%rbp), %rdx
	.loc	52 1500 12 is_stmt 0    ## /Applications/Xcode.app/Contents/Developer/Toolchains/XcodeDefault.xctoolchain/usr/bin/../include/c++/v1/vector:1500:12
	shlq	$3, %rdx
	addq	(%rcx), %rdx
	movq	%rax, -1616(%rbp)       ## 8-byte Spill
	movq	%rdx, -1624(%rbp)       ## 8-byte Spill
Ltmp91:
## BB#30:                               ##   in Loop: Header=BB0_28 Depth=1
	.loc	50 54 19 is_stmt 1      ## /Users/JRod/Desktop/OpenCVTemplate/419-project/OpenCV3Import/OpenCV3Import/FileIO.cpp:54:19
	movq	-1624(%rbp), %rax       ## 8-byte Reload
	movsd	(%rax), %xmm0           ## xmm0 = mem[0],zero
	.loc	50 54 16 is_stmt 0      ## /Users/JRod/Desktop/OpenCVTemplate/419-project/OpenCV3Import/OpenCV3Import/FileIO.cpp:54:16
Ltmp33:
	movq	-1616(%rbp), %rdi       ## 8-byte Reload
	callq	__ZNSt3__113basic_ostreamIcNS_11char_traitsIcEEElsEd
Ltmp34:
	movq	%rax, -1632(%rbp)       ## 8-byte Spill
	jmp	LBB0_31
LBB0_31:                                ##   in Loop: Header=BB0_28 Depth=1
	.loc	50 54 34                ## /Users/JRod/Desktop/OpenCVTemplate/419-project/OpenCV3Import/OpenCV3Import/FileIO.cpp:54:34
Ltmp35:
	leaq	L_.str.2(%rip), %rsi
	movq	-1632(%rbp), %rdi       ## 8-byte Reload
	callq	__ZNSt3__1lsINS_11char_traitsIcEEEERNS_13basic_ostreamIcT_EES6_PKc
Ltmp36:
	movq	%rax, -1640(%rbp)       ## 8-byte Spill
	jmp	LBB0_32
LBB0_32:                                ##   in Loop: Header=BB0_28 Depth=1
	.loc	50 55 5 is_stmt 1       ## /Users/JRod/Desktop/OpenCVTemplate/419-project/OpenCV3Import/OpenCV3Import/FileIO.cpp:55:5
	jmp	LBB0_33
Ltmp92:
LBB0_33:                                ##   in Loop: Header=BB0_28 Depth=1
	.loc	50 53 50                ## /Users/JRod/Desktop/OpenCVTemplate/419-project/OpenCV3Import/OpenCV3Import/FileIO.cpp:53:50
	movl	-1504(%rbp), %eax
	addl	$1, %eax
	movl	%eax, -1504(%rbp)
	.loc	50 53 5 is_stmt 0       ## /Users/JRod/Desktop/OpenCVTemplate/419-project/OpenCV3Import/OpenCV3Import/FileIO.cpp:53:5
	jmp	LBB0_28
Ltmp93:
LBB0_34:
	leaq	-576(%rbp), %rax
	.loc	50 56 15 is_stmt 1      ## /Users/JRod/Desktop/OpenCVTemplate/419-project/OpenCV3Import/OpenCV3Import/FileIO.cpp:56:15
	movq	-1520(%rbp), %rcx       ## 8-byte Reload
	addq	$8, %rcx
	.loc	50 56 27 is_stmt 0      ## /Users/JRod/Desktop/OpenCVTemplate/419-project/OpenCV3Import/OpenCV3Import/FileIO.cpp:56:27
	movl	_FRAMES_PER_GESTURE(%rip), %edx
	.loc	50 56 46                ## /Users/JRod/Desktop/OpenCVTemplate/419-project/OpenCV3Import/OpenCV3Import/FileIO.cpp:56:46
	shll	$2, %edx
	.loc	50 56 27                ## /Users/JRod/Desktop/OpenCVTemplate/419-project/OpenCV3Import/OpenCV3Import/FileIO.cpp:56:27
	movslq	%edx, %rsi
	.loc	50 56 15                ## /Users/JRod/Desktop/OpenCVTemplate/419-project/OpenCV3Import/OpenCV3Import/FileIO.cpp:56:15
	movq	%rcx, -1216(%rbp)
	movq	%rsi, -1224(%rbp)
	movq	-1216(%rbp), %rcx
	.loc	52 1500 27 is_stmt 1    ## /Applications/Xcode.app/Contents/Developer/Toolchains/XcodeDefault.xctoolchain/usr/bin/../include/c++/v1/vector:1500:27
Ltmp94:
	movq	-1224(%rbp), %rsi
	.loc	52 1500 12 is_stmt 0    ## /Applications/Xcode.app/Contents/Developer/Toolchains/XcodeDefault.xctoolchain/usr/bin/../include/c++/v1/vector:1500:12
	shlq	$3, %rsi
	addq	(%rcx), %rsi
	movq	%rax, -1648(%rbp)       ## 8-byte Spill
	movq	%rsi, -1656(%rbp)       ## 8-byte Spill
Ltmp95:
## BB#35:
	.loc	50 56 15 is_stmt 1      ## /Users/JRod/Desktop/OpenCVTemplate/419-project/OpenCV3Import/OpenCV3Import/FileIO.cpp:56:15
	movq	-1656(%rbp), %rax       ## 8-byte Reload
	movsd	(%rax), %xmm0           ## xmm0 = mem[0],zero
	.loc	50 56 12 is_stmt 0      ## /Users/JRod/Desktop/OpenCVTemplate/419-project/OpenCV3Import/OpenCV3Import/FileIO.cpp:56:12
Ltmp25:
	movq	-1648(%rbp), %rdi       ## 8-byte Reload
	callq	__ZNSt3__113basic_ostreamIcNS_11char_traitsIcEEElsEd
Ltmp26:
	movq	%rax, -1664(%rbp)       ## 8-byte Spill
	jmp	LBB0_36
LBB0_36:
	.loc	50 56 51                ## /Users/JRod/Desktop/OpenCVTemplate/419-project/OpenCV3Import/OpenCV3Import/FileIO.cpp:56:51
	movq	-1664(%rbp), %rax       ## 8-byte Reload
	movq	%rax, -1200(%rbp)
	leaq	__ZNSt3__14endlIcNS_11char_traitsIcEEEERNS_13basic_ostreamIT_T0_EES7_(%rip), %rcx
	movq	%rcx, -1208(%rbp)
	movq	-1200(%rbp), %rdi
	.loc	21 322 12 is_stmt 1     ## /Applications/Xcode.app/Contents/Developer/Toolchains/XcodeDefault.xctoolchain/usr/bin/../include/c++/v1/ostream:322:12
Ltmp96:
Ltmp27:
	callq	*%rcx
Ltmp28:
	movq	%rax, -1672(%rbp)       ## 8-byte Spill
	jmp	LBB0_37
LBB0_37:
	.loc	21 322 5 is_stmt 0      ## /Applications/Xcode.app/Contents/Developer/Toolchains/XcodeDefault.xctoolchain/usr/bin/../include/c++/v1/ostream:322:5
	jmp	LBB0_38
Ltmp97:
LBB0_38:
	leaq	-576(%rbp), %rax
	.loc	50 57 5 is_stmt 1       ## /Users/JRod/Desktop/OpenCVTemplate/419-project/OpenCV3Import/OpenCV3Import/FileIO.cpp:57:5
	movq	%rax, -1192(%rbp)
	.loc	16 1298 9               ## /Applications/Xcode.app/Contents/Developer/Toolchains/XcodeDefault.xctoolchain/usr/bin/../include/c++/v1/fstream:1298:9
Ltmp98:
	leaq	-568(%rbp), %rdi
Ltmp29:
	movq	%rax, -1680(%rbp)       ## 8-byte Spill
	callq	__ZNSt3__113basic_filebufIcNS_11char_traitsIcEEE5closeEv
Ltmp30:
	movq	%rax, -1688(%rbp)       ## 8-byte Spill
	jmp	LBB0_39
LBB0_39:
	.loc	16 1298 23 is_stmt 0    ## /Applications/Xcode.app/Contents/Developer/Toolchains/XcodeDefault.xctoolchain/usr/bin/../include/c++/v1/fstream:1298:23
	movq	-1688(%rbp), %rax       ## 8-byte Reload
	cmpq	$0, %rax
Ltmp99:
	.loc	16 1298 9               ## /Applications/Xcode.app/Contents/Developer/Toolchains/XcodeDefault.xctoolchain/usr/bin/../include/c++/v1/fstream:1298:9
	jne	LBB0_42
## BB#40:
	.loc	16 1299 9 is_stmt 1     ## /Applications/Xcode.app/Contents/Developer/Toolchains/XcodeDefault.xctoolchain/usr/bin/../include/c++/v1/fstream:1299:9
Ltmp100:
	movq	-1680(%rbp), %rax       ## 8-byte Reload
	movq	(%rax), %rcx
	movq	-24(%rcx), %rcx
	addq	%rcx, %rax
	movq	%rax, -1176(%rbp)
	movl	$4, -1180(%rbp)
	movq	-1176(%rbp), %rax
	.loc	3 589 59                ## /Applications/Xcode.app/Contents/Developer/Toolchains/XcodeDefault.xctoolchain/usr/bin/../include/c++/v1/ios:589:59
Ltmp101:
	movq	%rax, -1160(%rbp)
	movl	$4, -1164(%rbp)
	movq	-1160(%rbp), %rax
	.loc	3 524 11                ## /Applications/Xcode.app/Contents/Developer/Toolchains/XcodeDefault.xctoolchain/usr/bin/../include/c++/v1/ios:524:11
Ltmp102:
	movl	32(%rax), %edx
	.loc	3 524 22 is_stmt 0      ## /Applications/Xcode.app/Contents/Developer/Toolchains/XcodeDefault.xctoolchain/usr/bin/../include/c++/v1/ios:524:22
	orl	$4, %edx
	.loc	3 524 5                 ## /Applications/Xcode.app/Contents/Developer/Toolchains/XcodeDefault.xctoolchain/usr/bin/../include/c++/v1/ios:524:5
Ltmp31:
	movq	%rax, %rdi
	movl	%edx, %esi
	callq	__ZNSt3__18ios_base5clearEj
Ltmp32:
	jmp	LBB0_41
Ltmp103:
LBB0_41:
	.loc	16 1299 9 is_stmt 1     ## /Applications/Xcode.app/Contents/Developer/Toolchains/XcodeDefault.xctoolchain/usr/bin/../include/c++/v1/fstream:1299:9
	jmp	LBB0_42
Ltmp104:
LBB0_42:
	.loc	16 1300 1               ## /Applications/Xcode.app/Contents/Developer/Toolchains/XcodeDefault.xctoolchain/usr/bin/../include/c++/v1/fstream:1300:1
	jmp	LBB0_43
Ltmp105:
LBB0_43:
	leaq	-1152(%rbp), %rdi
	.loc	50 60 1                 ## /Users/JRod/Desktop/OpenCVTemplate/419-project/OpenCV3Import/OpenCV3Import/FileIO.cpp:60:1
	callq	__ZNSt3__114basic_ifstreamIcNS_11char_traitsIcEEED1Ev
	leaq	-576(%rbp), %rdi
	callq	__ZNSt3__114basic_ofstreamIcNS_11char_traitsIcEEED1Ev
	movq	___stack_chk_guard@GOTPCREL(%rip), %rdi
	movq	(%rdi), %rdi
	cmpq	-8(%rbp), %rdi
	jne	LBB0_48
## BB#44:
	addq	$1696, %rsp             ## imm = 0x6A0
	popq	%rbp
	retq
LBB0_45:
	leaq	-576(%rbp), %rdi
	callq	__ZNSt3__114basic_ofstreamIcNS_11char_traitsIcEEED1Ev
## BB#46:
	movq	-1496(%rbp), %rax
	movq	%rax, -1544(%rbp)       ## 8-byte Spill
Ltmp106:
LBB0_47:
	movq	-1544(%rbp), %rax       ## 8-byte Reload
	movq	%rax, %rdi
	callq	__Unwind_Resume
LBB0_48:
	callq	___stack_chk_fail
Lfunc_end0:
	.cfi_endproc
	.file	53 "/Applications/Xcode.app/Contents/Developer/Toolchains/XcodeDefault.xctoolchain/usr/bin/../include/c++/v1" "__split_buffer"
	.file	54 "/Users/JRod/Desktop/OpenCVTemplate/419-project/OpenCV3Import/OpenCV3Import" "FileIO.hpp"
	.file	55 "/usr/local/include/GRT/DataStructures" "Vector.h"
	.file	56 "/usr/local/include/GRT/Util/../DataStructures/../Util" "Log.h"
	.file	57 "/usr/local/include/GRT/Util" "ObserverManager.h"
	.file	58 "/usr/local/include/GRT/Util/../DataStructures/../Util" "WarningLog.h"
	.file	59 "/usr/local/include/GRT/ClassificationModules/ANBC/../../DataStructures" "VectorFloat.h"
	.file	60 "/usr/local/include/GRT/Util/../DataStructures/../Util" "ErrorLog.h"
	.file	61 "/usr/local/include/GRT/Util/../DataStructures/../Util" "MinMax.h"
	.section	__TEXT,__gcc_except_tab
	.align	2
GCC_except_table0:
Lexception0:
	.byte	255                     ## @LPStart Encoding = omit
	.byte	155                     ## @TType Encoding = indirect pcrel sdata4
	.byte	93                      ## @TType base offset
	.byte	3                       ## Call site Encoding = udata4
	.byte	91                      ## Call site table length
Lset0 = Ltmp0-Lfunc_begin0              ## >> Call Site 1 <<
	.long	Lset0
Lset1 = Ltmp1-Ltmp0                     ##   Call between Ltmp0 and Ltmp1
	.long	Lset1
Lset2 = Ltmp2-Lfunc_begin0              ##     jumps to Ltmp2
	.long	Lset2
	.byte	0                       ##   On action: cleanup
Lset3 = Ltmp3-Lfunc_begin0              ## >> Call Site 2 <<
	.long	Lset3
Lset4 = Ltmp4-Ltmp3                     ##   Call between Ltmp3 and Ltmp4
	.long	Lset4
Lset5 = Ltmp5-Lfunc_begin0              ##     jumps to Ltmp5
	.long	Lset5
	.byte	0                       ##   On action: cleanup
Lset6 = Ltmp6-Lfunc_begin0              ## >> Call Site 3 <<
	.long	Lset6
Lset7 = Ltmp7-Ltmp6                     ##   Call between Ltmp6 and Ltmp7
	.long	Lset7
Lset8 = Ltmp8-Lfunc_begin0              ##     jumps to Ltmp8
	.long	Lset8
	.byte	0                       ##   On action: cleanup
Lset9 = Ltmp9-Lfunc_begin0              ## >> Call Site 4 <<
	.long	Lset9
Lset10 = Ltmp10-Ltmp9                   ##   Call between Ltmp9 and Ltmp10
	.long	Lset10
Lset11 = Ltmp11-Lfunc_begin0            ##     jumps to Ltmp11
	.long	Lset11
	.byte	0                       ##   On action: cleanup
Lset12 = Ltmp12-Lfunc_begin0            ## >> Call Site 5 <<
	.long	Lset12
Lset13 = Ltmp15-Ltmp12                  ##   Call between Ltmp12 and Ltmp15
	.long	Lset13
Lset14 = Ltmp16-Lfunc_begin0            ##     jumps to Ltmp16
	.long	Lset14
	.byte	0                       ##   On action: cleanup
Lset15 = Ltmp19-Lfunc_begin0            ## >> Call Site 6 <<
	.long	Lset15
Lset16 = Ltmp32-Ltmp19                  ##   Call between Ltmp19 and Ltmp32
	.long	Lset16
Lset17 = Ltmp37-Lfunc_begin0            ##     jumps to Ltmp37
	.long	Lset17
	.byte	0                       ##   On action: cleanup
Lset18 = Ltmp32-Lfunc_begin0            ## >> Call Site 7 <<
	.long	Lset18
Lset19 = Lfunc_end0-Ltmp32              ##   Call between Ltmp32 and Lfunc_end0
	.long	Lset19
	.long	0                       ##     has no landing pad
	.byte	0                       ##   On action: cleanup
	.align	2

	.section	__TEXT,__text,regular,pure_instructions
	.globl	__ZNSt3__114basic_ofstreamIcNS_11char_traitsIcEEE4openEPKcj
	.weak_def_can_be_hidden	__ZNSt3__114basic_ofstreamIcNS_11char_traitsIcEEE4openEPKcj
	.align	4, 0x90
__ZNSt3__114basic_ofstreamIcNS_11char_traitsIcEEE4openEPKcj: ## @_ZNSt3__114basic_ofstreamIcNS_11char_traitsIcEEE4openEPKcj
Lfunc_begin1:
	.loc	16 1275 0               ## /Applications/Xcode.app/Contents/Developer/Toolchains/XcodeDefault.xctoolchain/usr/bin/../include/c++/v1/fstream:1275:0
	.cfi_startproc
## BB#0:
	pushq	%rbp
Ltmp107:
	.cfi_def_cfa_offset 16
Ltmp108:
	.cfi_offset %rbp, -16
	movq	%rsp, %rbp
Ltmp109:
	.cfi_def_cfa_register %rbp
	subq	$80, %rsp
	movq	%rdi, -56(%rbp)
	movq	%rsi, -64(%rbp)
	movl	%edx, -68(%rbp)
	movq	-56(%rbp), %rsi
	.loc	16 1276 9 prologue_end  ## /Applications/Xcode.app/Contents/Developer/Toolchains/XcodeDefault.xctoolchain/usr/bin/../include/c++/v1/fstream:1276:9
Ltmp110:
	movq	%rsi, %rdi
	addq	$8, %rdi
	.loc	16 1276 20 is_stmt 0    ## /Applications/Xcode.app/Contents/Developer/Toolchains/XcodeDefault.xctoolchain/usr/bin/../include/c++/v1/fstream:1276:20
	movq	-64(%rbp), %rax
	.loc	16 1276 25              ## /Applications/Xcode.app/Contents/Developer/Toolchains/XcodeDefault.xctoolchain/usr/bin/../include/c++/v1/fstream:1276:25
	movl	-68(%rbp), %edx
	.loc	16 1276 32              ## /Applications/Xcode.app/Contents/Developer/Toolchains/XcodeDefault.xctoolchain/usr/bin/../include/c++/v1/fstream:1276:32
	orl	$16, %edx
	.loc	16 1276 9               ## /Applications/Xcode.app/Contents/Developer/Toolchains/XcodeDefault.xctoolchain/usr/bin/../include/c++/v1/fstream:1276:9
	movq	%rsi, -80(%rbp)         ## 8-byte Spill
	movq	%rax, %rsi
	callq	__ZNSt3__113basic_filebufIcNS_11char_traitsIcEEE4openEPKcj
	cmpq	$0, %rax
Ltmp111:
	.loc	16 1276 9               ## /Applications/Xcode.app/Contents/Developer/Toolchains/XcodeDefault.xctoolchain/usr/bin/../include/c++/v1/fstream:1276:9
	je	LBB1_2
## BB#1:
	.loc	16 1277 9 is_stmt 1     ## /Applications/Xcode.app/Contents/Developer/Toolchains/XcodeDefault.xctoolchain/usr/bin/../include/c++/v1/fstream:1277:9
Ltmp112:
	movq	-80(%rbp), %rax         ## 8-byte Reload
	movq	(%rax), %rcx
	movq	-24(%rcx), %rcx
	addq	%rcx, %rax
	movq	%rax, -40(%rbp)
	movl	$0, -44(%rbp)
	movq	-40(%rbp), %rax
	.loc	3 588 82                ## /Applications/Xcode.app/Contents/Developer/Toolchains/XcodeDefault.xctoolchain/usr/bin/../include/c++/v1/ios:588:82
Ltmp113:
	movl	-44(%rbp), %esi
	.loc	3 588 66 is_stmt 0      ## /Applications/Xcode.app/Contents/Developer/Toolchains/XcodeDefault.xctoolchain/usr/bin/../include/c++/v1/ios:588:66
	movq	%rax, %rdi
	callq	__ZNSt3__18ios_base5clearEj
Ltmp114:
	.loc	16 1277 9 is_stmt 1     ## /Applications/Xcode.app/Contents/Developer/Toolchains/XcodeDefault.xctoolchain/usr/bin/../include/c++/v1/fstream:1277:9
	jmp	LBB1_3
LBB1_2:
	.loc	16 1279 9               ## /Applications/Xcode.app/Contents/Developer/Toolchains/XcodeDefault.xctoolchain/usr/bin/../include/c++/v1/fstream:1279:9
	movq	-80(%rbp), %rax         ## 8-byte Reload
	movq	(%rax), %rcx
	movq	-24(%rcx), %rcx
	addq	%rcx, %rax
	movq	%rax, -24(%rbp)
	movl	$4, -28(%rbp)
	movq	-24(%rbp), %rax
	.loc	3 589 78                ## /Applications/Xcode.app/Contents/Developer/Toolchains/XcodeDefault.xctoolchain/usr/bin/../include/c++/v1/ios:589:78
Ltmp115:
	movl	-28(%rbp), %edx
	.loc	3 589 59 is_stmt 0      ## /Applications/Xcode.app/Contents/Developer/Toolchains/XcodeDefault.xctoolchain/usr/bin/../include/c++/v1/ios:589:59
	movq	%rax, -8(%rbp)
	movl	%edx, -12(%rbp)
	movq	-8(%rbp), %rax
	.loc	3 524 11 is_stmt 1      ## /Applications/Xcode.app/Contents/Developer/Toolchains/XcodeDefault.xctoolchain/usr/bin/../include/c++/v1/ios:524:11
Ltmp116:
	movl	32(%rax), %edx
	.loc	3 524 22 is_stmt 0      ## /Applications/Xcode.app/Contents/Developer/Toolchains/XcodeDefault.xctoolchain/usr/bin/../include/c++/v1/ios:524:22
	orl	-12(%rbp), %edx
	.loc	3 524 5                 ## /Applications/Xcode.app/Contents/Developer/Toolchains/XcodeDefault.xctoolchain/usr/bin/../include/c++/v1/ios:524:5
	movq	%rax, %rdi
	movl	%edx, %esi
	callq	__ZNSt3__18ios_base5clearEj
Ltmp117:
LBB1_3:
	.loc	16 1280 1 is_stmt 1     ## /Applications/Xcode.app/Contents/Developer/Toolchains/XcodeDefault.xctoolchain/usr/bin/../include/c++/v1/fstream:1280:1
	addq	$80, %rsp
	popq	%rbp
	retq
Ltmp118:
Lfunc_end1:
	.cfi_endproc

	.globl	__ZNSt3__1lsINS_11char_traitsIcEEEERNS_13basic_ostreamIcT_EES6_PKc
	.weak_def_can_be_hidden	__ZNSt3__1lsINS_11char_traitsIcEEEERNS_13basic_ostreamIcT_EES6_PKc
	.align	4, 0x90
__ZNSt3__1lsINS_11char_traitsIcEEEERNS_13basic_ostreamIcT_EES6_PKc: ## @_ZNSt3__1lsINS_11char_traitsIcEEEERNS_13basic_ostreamIcT_EES6_PKc
Lfunc_begin2:
	.loc	21 893 0                ## /Applications/Xcode.app/Contents/Developer/Toolchains/XcodeDefault.xctoolchain/usr/bin/../include/c++/v1/ostream:893:0
	.cfi_startproc
## BB#0:
	pushq	%rbp
Ltmp119:
	.cfi_def_cfa_offset 16
Ltmp120:
	.cfi_offset %rbp, -16
	movq	%rsp, %rbp
Ltmp121:
	.cfi_def_cfa_register %rbp
	subq	$32, %rsp
	movq	%rdi, -8(%rbp)
	movq	%rsi, -16(%rbp)
	.loc	21 894 44 prologue_end  ## /Applications/Xcode.app/Contents/Developer/Toolchains/XcodeDefault.xctoolchain/usr/bin/../include/c++/v1/ostream:894:44
Ltmp122:
	movq	-8(%rbp), %rdi
	.loc	21 894 50 is_stmt 0     ## /Applications/Xcode.app/Contents/Developer/Toolchains/XcodeDefault.xctoolchain/usr/bin/../include/c++/v1/ostream:894:50
	movq	-16(%rbp), %rsi
	.loc	21 894 73               ## /Applications/Xcode.app/Contents/Developer/Toolchains/XcodeDefault.xctoolchain/usr/bin/../include/c++/v1/ostream:894:73
	movq	-16(%rbp), %rax
	.loc	21 894 57               ## /Applications/Xcode.app/Contents/Developer/Toolchains/XcodeDefault.xctoolchain/usr/bin/../include/c++/v1/ostream:894:57
	movq	%rdi, -24(%rbp)         ## 8-byte Spill
	movq	%rax, %rdi
	movq	%rsi, -32(%rbp)         ## 8-byte Spill
	callq	__ZNSt3__111char_traitsIcE6lengthEPKc
	.loc	21 894 12               ## /Applications/Xcode.app/Contents/Developer/Toolchains/XcodeDefault.xctoolchain/usr/bin/../include/c++/v1/ostream:894:12
	movq	-24(%rbp), %rdi         ## 8-byte Reload
	movq	-32(%rbp), %rsi         ## 8-byte Reload
	movq	%rax, %rdx
	callq	__ZNSt3__124__put_character_sequenceIcNS_11char_traitsIcEEEERNS_13basic_ostreamIT_T0_EES7_PKS4_m
	.loc	21 894 5                ## /Applications/Xcode.app/Contents/Developer/Toolchains/XcodeDefault.xctoolchain/usr/bin/../include/c++/v1/ostream:894:5
	addq	$32, %rsp
	popq	%rbp
	retq
Ltmp123:
Lfunc_end2:
	.cfi_endproc

	.private_extern	__ZNSt3__14endlIcNS_11char_traitsIcEEEERNS_13basic_ostreamIT_T0_EES7_
	.globl	__ZNSt3__14endlIcNS_11char_traitsIcEEEERNS_13basic_ostreamIT_T0_EES7_
	.weak_definition	__ZNSt3__14endlIcNS_11char_traitsIcEEEERNS_13basic_ostreamIT_T0_EES7_
	.align	4, 0x90
__ZNSt3__14endlIcNS_11char_traitsIcEEEERNS_13basic_ostreamIT_T0_EES7_: ## @_ZNSt3__14endlIcNS_11char_traitsIcEEEERNS_13basic_ostreamIT_T0_EES7_
Lfunc_begin3:
	.loc	21 1033 0 is_stmt 1     ## /Applications/Xcode.app/Contents/Developer/Toolchains/XcodeDefault.xctoolchain/usr/bin/../include/c++/v1/ostream:1033:0
	.cfi_startproc
	.cfi_personality 155, ___gxx_personality_v0
	.cfi_lsda 16, Lexception1
## BB#0:
	pushq	%rbp
Ltmp129:
	.cfi_def_cfa_offset 16
Ltmp130:
	.cfi_offset %rbp, -16
	movq	%rsp, %rbp
Ltmp131:
	.cfi_def_cfa_register %rbp
	subq	$144, %rsp
	##DEBUG_VALUE: endl<char, std::__1::char_traits<char> >:__os <- [%RBP+-72]
	movq	%rdi, -72(%rbp)
	.loc	21 1034 5 prologue_end  ## /Applications/Xcode.app/Contents/Developer/Toolchains/XcodeDefault.xctoolchain/usr/bin/../include/c++/v1/ostream:1034:5
Ltmp132:
	movq	%rdi, %rax
	.loc	21 1034 14 is_stmt 0    ## /Applications/Xcode.app/Contents/Developer/Toolchains/XcodeDefault.xctoolchain/usr/bin/../include/c++/v1/ostream:1034:14
	movq	(%rdi), %rcx
	movq	-24(%rcx), %rcx
	addq	%rcx, %rdi
	movq	%rdi, -32(%rbp)
	movb	$10, -33(%rbp)
	movq	-32(%rbp), %rsi
	leaq	-48(%rbp), %rcx
	.loc	3 734 41 is_stmt 1      ## /Applications/Xcode.app/Contents/Developer/Toolchains/XcodeDefault.xctoolchain/usr/bin/../include/c++/v1/ios:734:41
Ltmp133:
	movq	%rcx, %rdi
	movq	%rax, -80(%rbp)         ## 8-byte Spill
	movq	%rcx, -88(%rbp)         ## 8-byte Spill
	callq	__ZNKSt3__18ios_base6getlocEv
	.loc	3 734 12 is_stmt 0      ## /Applications/Xcode.app/Contents/Developer/Toolchains/XcodeDefault.xctoolchain/usr/bin/../include/c++/v1/ios:734:12
	movq	-88(%rbp), %rax         ## 8-byte Reload
	movq	%rax, -24(%rbp)
	.loc	7 187 40 is_stmt 1      ## /Applications/Xcode.app/Contents/Developer/Toolchains/XcodeDefault.xctoolchain/usr/bin/../include/c++/v1/__locale:187:40
Ltmp134:
Ltmp124:
	movq	__ZNSt3__15ctypeIcE2idE@GOTPCREL(%rip), %rsi
	movq	%rax, %rdi
	callq	__ZNKSt3__16locale9use_facetERNS0_2idE
Ltmp125:
	movq	%rax, -96(%rbp)         ## 8-byte Spill
	jmp	LBB3_1
Ltmp135:
LBB3_1:
	##DEBUG_VALUE: endl<char, std::__1::char_traits<char> >:__os <- [%RBP+-72]
	.loc	3 734 57                ## /Applications/Xcode.app/Contents/Developer/Toolchains/XcodeDefault.xctoolchain/usr/bin/../include/c++/v1/ios:734:57
	movb	-33(%rbp), %al
	.loc	3 734 12 is_stmt 0      ## /Applications/Xcode.app/Contents/Developer/Toolchains/XcodeDefault.xctoolchain/usr/bin/../include/c++/v1/ios:734:12
	movq	-96(%rbp), %rcx         ## 8-byte Reload
	movq	%rcx, -8(%rbp)
	movb	%al, -9(%rbp)
	movq	-8(%rbp), %rdx
	.loc	7 603 16 is_stmt 1      ## /Applications/Xcode.app/Contents/Developer/Toolchains/XcodeDefault.xctoolchain/usr/bin/../include/c++/v1/__locale:603:16
Ltmp136:
	movq	(%rdx), %rsi
	movq	56(%rsi), %rsi
	movsbl	-9(%rbp), %edi
Ltmp126:
	movl	%edi, -100(%rbp)        ## 4-byte Spill
	movq	%rdx, %rdi
	movl	-100(%rbp), %r8d        ## 4-byte Reload
	movq	%rsi, -112(%rbp)        ## 8-byte Spill
	movl	%r8d, %esi
	movq	-112(%rbp), %rdx        ## 8-byte Reload
	callq	*%rdx
Ltmp127:
	movb	%al, -113(%rbp)         ## 1-byte Spill
	jmp	LBB3_3
Ltmp137:
LBB3_2:
	##DEBUG_VALUE: endl<char, std::__1::char_traits<char> >:__os <- [%RBP+-72]
Ltmp128:
	leaq	-48(%rbp), %rdi
	.loc	3 735 1                 ## /Applications/Xcode.app/Contents/Developer/Toolchains/XcodeDefault.xctoolchain/usr/bin/../include/c++/v1/ios:735:1
	movl	%edx, %ecx
	movq	%rax, -56(%rbp)
	movl	%ecx, -60(%rbp)
	.loc	3 734 5                 ## /Applications/Xcode.app/Contents/Developer/Toolchains/XcodeDefault.xctoolchain/usr/bin/../include/c++/v1/ios:734:5
	callq	__ZNSt3__16localeD1Ev
	movq	-56(%rbp), %rdi
	callq	__Unwind_Resume
LBB3_3:
	##DEBUG_VALUE: endl<char, std::__1::char_traits<char> >:__os <- [%RBP+-72]
	leaq	-48(%rbp), %rdi
	callq	__ZNSt3__16localeD1Ev
Ltmp138:
	.loc	21 1034 5               ## /Applications/Xcode.app/Contents/Developer/Toolchains/XcodeDefault.xctoolchain/usr/bin/../include/c++/v1/ostream:1034:5
	movq	-80(%rbp), %rdi         ## 8-byte Reload
	movb	-113(%rbp), %al         ## 1-byte Reload
	movsbl	%al, %esi
	callq	__ZNSt3__113basic_ostreamIcNS_11char_traitsIcEEE3putEc
	.loc	21 1035 5               ## /Applications/Xcode.app/Contents/Developer/Toolchains/XcodeDefault.xctoolchain/usr/bin/../include/c++/v1/ostream:1035:5
	movq	-72(%rbp), %rdi
	movq	%rax, -128(%rbp)        ## 8-byte Spill
	callq	__ZNSt3__113basic_ostreamIcNS_11char_traitsIcEEE5flushEv
	.loc	21 1036 12              ## /Applications/Xcode.app/Contents/Developer/Toolchains/XcodeDefault.xctoolchain/usr/bin/../include/c++/v1/ostream:1036:12
	movq	-72(%rbp), %rdi
	.loc	21 1036 5 is_stmt 0     ## /Applications/Xcode.app/Contents/Developer/Toolchains/XcodeDefault.xctoolchain/usr/bin/../include/c++/v1/ostream:1036:5
	movq	%rax, -136(%rbp)        ## 8-byte Spill
	movq	%rdi, %rax
	addq	$144, %rsp
	popq	%rbp
	retq
Ltmp139:
Lfunc_end3:
	.cfi_endproc
	.section	__TEXT,__gcc_except_tab
	.align	2
GCC_except_table3:
Lexception1:
	.byte	255                     ## @LPStart Encoding = omit
	.byte	155                     ## @TType Encoding = indirect pcrel sdata4
	.byte	41                      ## @TType base offset
	.byte	3                       ## Call site Encoding = udata4
	.byte	39                      ## Call site table length
Lset20 = Lfunc_begin3-Lfunc_begin3      ## >> Call Site 1 <<
	.long	Lset20
Lset21 = Ltmp124-Lfunc_begin3           ##   Call between Lfunc_begin3 and Ltmp124
	.long	Lset21
	.long	0                       ##     has no landing pad
	.byte	0                       ##   On action: cleanup
Lset22 = Ltmp124-Lfunc_begin3           ## >> Call Site 2 <<
	.long	Lset22
Lset23 = Ltmp127-Ltmp124                ##   Call between Ltmp124 and Ltmp127
	.long	Lset23
Lset24 = Ltmp128-Lfunc_begin3           ##     jumps to Ltmp128
	.long	Lset24
	.byte	0                       ##   On action: cleanup
Lset25 = Ltmp127-Lfunc_begin3           ## >> Call Site 3 <<
	.long	Lset25
Lset26 = Lfunc_end3-Ltmp127             ##   Call between Ltmp127 and Lfunc_end3
	.long	Lset26
	.long	0                       ##     has no landing pad
	.byte	0                       ##   On action: cleanup
	.align	2

	.section	__TEXT,__text,regular,pure_instructions
	.private_extern	__ZNSt3__114basic_ifstreamIcNS_11char_traitsIcEEED1Ev
	.globl	__ZNSt3__114basic_ifstreamIcNS_11char_traitsIcEEED1Ev
	.weak_def_can_be_hidden	__ZNSt3__114basic_ifstreamIcNS_11char_traitsIcEEED1Ev
	.align	4, 0x90
__ZNSt3__114basic_ifstreamIcNS_11char_traitsIcEEED1Ev: ## @_ZNSt3__114basic_ifstreamIcNS_11char_traitsIcEEED1Ev
Lfunc_begin4:
	.loc	12 131 0 is_stmt 1      ## /Applications/Xcode.app/Contents/Developer/Toolchains/XcodeDefault.xctoolchain/usr/bin/../include/c++/v1/iosfwd:131:0
	.cfi_startproc
## BB#0:
	pushq	%rbp
Ltmp140:
	.cfi_def_cfa_offset 16
Ltmp141:
	.cfi_offset %rbp, -16
	movq	%rsp, %rbp
Ltmp142:
	.cfi_def_cfa_register %rbp
	subq	$16, %rsp
	movq	__ZTTNSt3__114basic_ifstreamIcNS_11char_traitsIcEEEE@GOTPCREL(%rip), %rsi
	movq	%rdi, -8(%rbp)
	movq	-8(%rbp), %rdi
	.loc	12 131 33 prologue_end  ## /Applications/Xcode.app/Contents/Developer/Toolchains/XcodeDefault.xctoolchain/usr/bin/../include/c++/v1/iosfwd:131:33
Ltmp143:
	movq	%rdi, -16(%rbp)         ## 8-byte Spill
	callq	__ZNSt3__114basic_ifstreamIcNS_11char_traitsIcEEED2Ev
	movq	-16(%rbp), %rsi         ## 8-byte Reload
	addq	$424, %rsi              ## imm = 0x1A8
	movq	%rsi, %rdi
	callq	__ZNSt3__19basic_iosIcNS_11char_traitsIcEEED2Ev
	addq	$16, %rsp
	popq	%rbp
	retq
Ltmp144:
Lfunc_end4:
	.cfi_endproc

	.private_extern	__ZNSt3__114basic_ofstreamIcNS_11char_traitsIcEEED1Ev
	.globl	__ZNSt3__114basic_ofstreamIcNS_11char_traitsIcEEED1Ev
	.weak_def_can_be_hidden	__ZNSt3__114basic_ofstreamIcNS_11char_traitsIcEEED1Ev
	.align	4, 0x90
__ZNSt3__114basic_ofstreamIcNS_11char_traitsIcEEED1Ev: ## @_ZNSt3__114basic_ofstreamIcNS_11char_traitsIcEEED1Ev
Lfunc_begin5:
	.loc	12 133 0                ## /Applications/Xcode.app/Contents/Developer/Toolchains/XcodeDefault.xctoolchain/usr/bin/../include/c++/v1/iosfwd:133:0
	.cfi_startproc
## BB#0:
	pushq	%rbp
Ltmp145:
	.cfi_def_cfa_offset 16
Ltmp146:
	.cfi_offset %rbp, -16
	movq	%rsp, %rbp
Ltmp147:
	.cfi_def_cfa_register %rbp
	subq	$16, %rsp
	movq	__ZTTNSt3__114basic_ofstreamIcNS_11char_traitsIcEEEE@GOTPCREL(%rip), %rsi
	movq	%rdi, -8(%rbp)
	movq	-8(%rbp), %rdi
	.loc	12 133 33 prologue_end  ## /Applications/Xcode.app/Contents/Developer/Toolchains/XcodeDefault.xctoolchain/usr/bin/../include/c++/v1/iosfwd:133:33
Ltmp148:
	movq	%rdi, -16(%rbp)         ## 8-byte Spill
	callq	__ZNSt3__114basic_ofstreamIcNS_11char_traitsIcEEED2Ev
	movq	-16(%rbp), %rsi         ## 8-byte Reload
	addq	$416, %rsi              ## imm = 0x1A0
	movq	%rsi, %rdi
	callq	__ZNSt3__19basic_iosIcNS_11char_traitsIcEEED2Ev
	addq	$16, %rsp
	popq	%rbp
	retq
Ltmp149:
Lfunc_end5:
	.cfi_endproc

	.globl	__ZN6FileIO4loadEv
	.align	4, 0x90
__ZN6FileIO4loadEv:                     ## @_ZN6FileIO4loadEv
Lfunc_begin6:
	.loc	50 62 0                 ## /Users/JRod/Desktop/OpenCVTemplate/419-project/OpenCV3Import/OpenCV3Import/FileIO.cpp:62:0
	.cfi_startproc
	.cfi_personality 155, ___gxx_personality_v0
	.cfi_lsda 16, Lexception2
## BB#0:
	pushq	%rbp
Ltmp166:
	.cfi_def_cfa_offset 16
Ltmp167:
	.cfi_offset %rbp, -16
	movq	%rsp, %rbp
Ltmp168:
	.cfi_def_cfa_register %rbp
	subq	$528, %rsp              ## imm = 0x210
	##DEBUG_VALUE: load:this <- [%RBP+-88]
	movq	%rdi, -88(%rbp)
	leaq	-416(%rbp), %rdi
	.loc	50 63 17 prologue_end   ## /Users/JRod/Desktop/OpenCVTemplate/419-project/OpenCV3Import/OpenCV3Import/FileIO.cpp:63:17
Ltmp169:
	callq	__ZN3GRT11MatrixFloatC1Ev
	leaq	-440(%rbp), %rdi
	.loc	50 64 20                ## /Users/JRod/Desktop/OpenCVTemplate/419-project/OpenCV3Import/OpenCV3Import/FileIO.cpp:64:20
	movq	%rdi, -72(%rbp)
	leaq	L_.str(%rip), %rdi
	movq	%rdi, -80(%rbp)
	movq	-72(%rbp), %rax
	.loc	8 2019 1                ## /Applications/Xcode.app/Contents/Developer/Toolchains/XcodeDefault.xctoolchain/usr/bin/../include/c++/v1/string:2019:1
Ltmp170:
	movq	%rax, -56(%rbp)
	movq	%rdi, -64(%rbp)
	movq	-56(%rbp), %rax
	.loc	8 1364 31               ## /Applications/Xcode.app/Contents/Developer/Toolchains/XcodeDefault.xctoolchain/usr/bin/../include/c++/v1/string:1364:31
Ltmp171:
	movq	%rax, -48(%rbp)
	.loc	9 2409 51               ## /Applications/Xcode.app/Contents/Developer/Toolchains/XcodeDefault.xctoolchain/usr/bin/../include/c++/v1/memory:2409:51
Ltmp172:
	movq	%rax, -40(%rbp)
	.loc	9 2409 31 is_stmt 0     ## /Applications/Xcode.app/Contents/Developer/Toolchains/XcodeDefault.xctoolchain/usr/bin/../include/c++/v1/memory:2409:31
Ltmp173:
	movq	%rax, -32(%rbp)
	.loc	9 2230 31 is_stmt 1     ## /Applications/Xcode.app/Contents/Developer/Toolchains/XcodeDefault.xctoolchain/usr/bin/../include/c++/v1/memory:2230:31
Ltmp174:
	movq	%rax, -24(%rbp)
	.loc	9 2230 64 is_stmt 0     ## /Applications/Xcode.app/Contents/Developer/Toolchains/XcodeDefault.xctoolchain/usr/bin/../include/c++/v1/memory:2230:64
	movq	$0, 16(%rax)
	movq	$0, 8(%rax)
	movq	$0, (%rax)
Ltmp175:
	.loc	8 2021 12 is_stmt 1     ## /Applications/Xcode.app/Contents/Developer/Toolchains/XcodeDefault.xctoolchain/usr/bin/../include/c++/v1/string:2021:12
	movq	-64(%rbp), %rdi
	.loc	8 2021 17 is_stmt 0     ## /Applications/Xcode.app/Contents/Developer/Toolchains/XcodeDefault.xctoolchain/usr/bin/../include/c++/v1/string:2021:17
Ltmp150:
	movq	%rdi, -464(%rbp)        ## 8-byte Spill
	movq	%rax, -472(%rbp)        ## 8-byte Spill
	callq	__ZNSt3__111char_traitsIcE6lengthEPKc
Ltmp151:
	movq	%rax, -480(%rbp)        ## 8-byte Spill
	jmp	LBB6_1
LBB6_1:
	##DEBUG_VALUE: load:this <- [%RBP+-88]
	.loc	8 2021 5                ## /Applications/Xcode.app/Contents/Developer/Toolchains/XcodeDefault.xctoolchain/usr/bin/../include/c++/v1/string:2021:5
Ltmp152:
	movq	-472(%rbp), %rdi        ## 8-byte Reload
	movq	-464(%rbp), %rsi        ## 8-byte Reload
	movq	-480(%rbp), %rdx        ## 8-byte Reload
	callq	__ZNSt3__112basic_stringIcNS_11char_traitsIcEENS_9allocatorIcEEE6__initEPKcm
Ltmp153:
	jmp	LBB6_2
Ltmp176:
LBB6_2:
	##DEBUG_VALUE: load:this <- [%RBP+-88]
	.loc	8 2025 1 is_stmt 1      ## /Applications/Xcode.app/Contents/Developer/Toolchains/XcodeDefault.xctoolchain/usr/bin/../include/c++/v1/string:2025:1
	jmp	LBB6_3
Ltmp177:
LBB6_3:
	##DEBUG_VALUE: load:this <- [%RBP+-88]
	.loc	50 64 5                 ## /Users/JRod/Desktop/OpenCVTemplate/419-project/OpenCV3Import/OpenCV3Import/FileIO.cpp:64:5
Ltmp154:
	leaq	-416(%rbp), %rdi
	leaq	-440(%rbp), %rsi
	movl	$44, %edx
	callq	__ZN3GRT11MatrixFloat4loadERKNSt3__112basic_stringIcNS1_11char_traitsIcEENS1_9allocatorIcEEEEc
Ltmp155:
	movb	%al, -481(%rbp)         ## 1-byte Spill
	jmp	LBB6_4
LBB6_4:
	##DEBUG_VALUE: load:this <- [%RBP+-88]
	leaq	-440(%rbp), %rdi
	callq	__ZNSt3__112basic_stringIcNS_11char_traitsIcEENS_9allocatorIcEEED1Ev
	.loc	50 65 10                ## /Users/JRod/Desktop/OpenCVTemplate/419-project/OpenCV3Import/OpenCV3Import/FileIO.cpp:65:10
Ltmp157:
	movq	__ZNSt3__14coutE@GOTPCREL(%rip), %rdi
	leaq	L_.str.3(%rip), %rsi
	callq	__ZNSt3__1lsINS_11char_traitsIcEEEERNS_13basic_ostreamIcT_EES6_PKc
Ltmp158:
	movq	%rax, -496(%rbp)        ## 8-byte Spill
	jmp	LBB6_5
LBB6_5:
	##DEBUG_VALUE: load:this <- [%RBP+-88]
	.loc	50 65 43 is_stmt 0      ## /Users/JRod/Desktop/OpenCVTemplate/419-project/OpenCV3Import/OpenCV3Import/FileIO.cpp:65:43
Ltmp159:
	leaq	-416(%rbp), %rdi
	callq	__ZNK3GRT6MatrixIdE10getNumColsEv
Ltmp160:
	movl	%eax, -500(%rbp)        ## 4-byte Spill
	jmp	LBB6_6
LBB6_6:
	##DEBUG_VALUE: load:this <- [%RBP+-88]
	.loc	50 65 40                ## /Users/JRod/Desktop/OpenCVTemplate/419-project/OpenCV3Import/OpenCV3Import/FileIO.cpp:65:40
Ltmp161:
	movq	-496(%rbp), %rdi        ## 8-byte Reload
	movl	-500(%rbp), %esi        ## 4-byte Reload
	callq	__ZNSt3__113basic_ostreamIcNS_11char_traitsIcEEElsEj
Ltmp162:
	movq	%rax, -512(%rbp)        ## 8-byte Spill
	jmp	LBB6_7
LBB6_7:
	##DEBUG_VALUE: load:this <- [%RBP+-88]
	.loc	50 65 66                ## /Users/JRod/Desktop/OpenCVTemplate/419-project/OpenCV3Import/OpenCV3Import/FileIO.cpp:65:66
	movq	-512(%rbp), %rax        ## 8-byte Reload
	movq	%rax, -8(%rbp)
	leaq	__ZNSt3__14endlIcNS_11char_traitsIcEEEERNS_13basic_ostreamIT_T0_EES7_(%rip), %rcx
	movq	%rcx, -16(%rbp)
	movq	-8(%rbp), %rdi
	.loc	21 322 12 is_stmt 1     ## /Applications/Xcode.app/Contents/Developer/Toolchains/XcodeDefault.xctoolchain/usr/bin/../include/c++/v1/ostream:322:12
Ltmp178:
Ltmp163:
	callq	*%rcx
Ltmp164:
	movq	%rax, -520(%rbp)        ## 8-byte Spill
	jmp	LBB6_8
LBB6_8:
	##DEBUG_VALUE: load:this <- [%RBP+-88]
	.loc	21 322 5 is_stmt 0      ## /Applications/Xcode.app/Contents/Developer/Toolchains/XcodeDefault.xctoolchain/usr/bin/../include/c++/v1/ostream:322:5
	jmp	LBB6_9
Ltmp179:
LBB6_9:
	##DEBUG_VALUE: load:this <- [%RBP+-88]
	leaq	-416(%rbp), %rdi
	.loc	50 66 1 is_stmt 1       ## /Users/JRod/Desktop/OpenCVTemplate/419-project/OpenCV3Import/OpenCV3Import/FileIO.cpp:66:1
	callq	__ZN3GRT11MatrixFloatD1Ev
	addq	$528, %rsp              ## imm = 0x210
	popq	%rbp
	retq
LBB6_10:
	##DEBUG_VALUE: load:this <- [%RBP+-88]
Ltmp165:
	movl	%edx, %ecx
	movq	%rax, -448(%rbp)
	movl	%ecx, -452(%rbp)
	jmp	LBB6_12
LBB6_11:
	##DEBUG_VALUE: load:this <- [%RBP+-88]
Ltmp156:
	leaq	-440(%rbp), %rdi
	movl	%edx, %ecx
	movq	%rax, -448(%rbp)
	movl	%ecx, -452(%rbp)
	.loc	50 64 5                 ## /Users/JRod/Desktop/OpenCVTemplate/419-project/OpenCV3Import/OpenCV3Import/FileIO.cpp:64:5
	callq	__ZNSt3__112basic_stringIcNS_11char_traitsIcEENS_9allocatorIcEEED1Ev
LBB6_12:
	##DEBUG_VALUE: load:this <- [%RBP+-88]
	leaq	-416(%rbp), %rdi
	.loc	50 66 1                 ## /Users/JRod/Desktop/OpenCVTemplate/419-project/OpenCV3Import/OpenCV3Import/FileIO.cpp:66:1
	callq	__ZN3GRT11MatrixFloatD1Ev
## BB#13:
	##DEBUG_VALUE: load:this <- [%RBP+-88]
	movq	-448(%rbp), %rdi
	callq	__Unwind_Resume
Ltmp180:
Lfunc_end6:
	.cfi_endproc
	.section	__TEXT,__gcc_except_tab
	.align	2
GCC_except_table6:
Lexception2:
	.byte	255                     ## @LPStart Encoding = omit
	.byte	155                     ## @TType Encoding = indirect pcrel sdata4
	.asciz	"\303\200"              ## @TType base offset
	.byte	3                       ## Call site Encoding = udata4
	.byte	65                      ## Call site table length
Lset27 = Lfunc_begin6-Lfunc_begin6      ## >> Call Site 1 <<
	.long	Lset27
Lset28 = Ltmp150-Lfunc_begin6           ##   Call between Lfunc_begin6 and Ltmp150
	.long	Lset28
	.long	0                       ##     has no landing pad
	.byte	0                       ##   On action: cleanup
Lset29 = Ltmp150-Lfunc_begin6           ## >> Call Site 2 <<
	.long	Lset29
Lset30 = Ltmp153-Ltmp150                ##   Call between Ltmp150 and Ltmp153
	.long	Lset30
Lset31 = Ltmp165-Lfunc_begin6           ##     jumps to Ltmp165
	.long	Lset31
	.byte	0                       ##   On action: cleanup
Lset32 = Ltmp154-Lfunc_begin6           ## >> Call Site 3 <<
	.long	Lset32
Lset33 = Ltmp155-Ltmp154                ##   Call between Ltmp154 and Ltmp155
	.long	Lset33
Lset34 = Ltmp156-Lfunc_begin6           ##     jumps to Ltmp156
	.long	Lset34
	.byte	0                       ##   On action: cleanup
Lset35 = Ltmp157-Lfunc_begin6           ## >> Call Site 4 <<
	.long	Lset35
Lset36 = Ltmp164-Ltmp157                ##   Call between Ltmp157 and Ltmp164
	.long	Lset36
Lset37 = Ltmp165-Lfunc_begin6           ##     jumps to Ltmp165
	.long	Lset37
	.byte	0                       ##   On action: cleanup
Lset38 = Ltmp164-Lfunc_begin6           ## >> Call Site 5 <<
	.long	Lset38
Lset39 = Lfunc_end6-Ltmp164             ##   Call between Ltmp164 and Lfunc_end6
	.long	Lset39
	.long	0                       ##     has no landing pad
	.byte	0                       ##   On action: cleanup
	.align	2

	.section	__TEXT,__text,regular,pure_instructions
	.private_extern	__ZNK3GRT6MatrixIdE10getNumColsEv
	.globl	__ZNK3GRT6MatrixIdE10getNumColsEv
	.weak_def_can_be_hidden	__ZNK3GRT6MatrixIdE10getNumColsEv
	.align	4, 0x90
__ZNK3GRT6MatrixIdE10getNumColsEv:      ## @_ZNK3GRT6MatrixIdE10getNumColsEv
Lfunc_begin7:
	.file	62 "/usr/local/include/GRT/DataStructures" "Matrix.h"
	.loc	62 579 0                ## /usr/local/include/GRT/DataStructures/Matrix.h:579:0
	.cfi_startproc
## BB#0:
	pushq	%rbp
Ltmp181:
	.cfi_def_cfa_offset 16
Ltmp182:
	.cfi_offset %rbp, -16
	movq	%rsp, %rbp
Ltmp183:
	.cfi_def_cfa_register %rbp
	movq	%rdi, -8(%rbp)
	movq	-8(%rbp), %rdi
	.loc	62 579 49 prologue_end  ## /usr/local/include/GRT/DataStructures/Matrix.h:579:49
Ltmp184:
	movl	12(%rdi), %eax
	.loc	62 579 42 is_stmt 0     ## /usr/local/include/GRT/DataStructures/Matrix.h:579:42
	popq	%rbp
	retq
Ltmp185:
Lfunc_end7:
	.cfi_endproc

	.private_extern	__ZNSt3__114basic_ifstreamIcNS_11char_traitsIcEEED2Ev
	.globl	__ZNSt3__114basic_ifstreamIcNS_11char_traitsIcEEED2Ev
	.weak_def_can_be_hidden	__ZNSt3__114basic_ifstreamIcNS_11char_traitsIcEEED2Ev
	.align	4, 0x90
__ZNSt3__114basic_ifstreamIcNS_11char_traitsIcEEED2Ev: ## @_ZNSt3__114basic_ifstreamIcNS_11char_traitsIcEEED2Ev
Lfunc_begin8:
	.loc	12 131 0 is_stmt 1      ## /Applications/Xcode.app/Contents/Developer/Toolchains/XcodeDefault.xctoolchain/usr/bin/../include/c++/v1/iosfwd:131:0
	.cfi_startproc
## BB#0:
	pushq	%rbp
Ltmp186:
	.cfi_def_cfa_offset 16
Ltmp187:
	.cfi_offset %rbp, -16
	movq	%rsp, %rbp
Ltmp188:
	.cfi_def_cfa_register %rbp
	subq	$32, %rsp
	movq	%rdi, -8(%rbp)
	movq	%rsi, -16(%rbp)
	movq	-8(%rbp), %rsi
	movq	-16(%rbp), %rdi
	.loc	12 131 33 prologue_end  ## /Applications/Xcode.app/Contents/Developer/Toolchains/XcodeDefault.xctoolchain/usr/bin/../include/c++/v1/iosfwd:131:33
Ltmp189:
	movq	(%rdi), %rax
	movq	%rax, (%rsi)
	movq	24(%rdi), %rax
	movq	(%rsi), %rcx
	movq	-24(%rcx), %rcx
	movq	%rax, (%rsi,%rcx)
	.loc	12 131 33 is_stmt 0     ## /Applications/Xcode.app/Contents/Developer/Toolchains/XcodeDefault.xctoolchain/usr/bin/../include/c++/v1/iosfwd:131:33
Ltmp190:
	movq	%rsi, %rax
	addq	$16, %rax
	movq	%rdi, -24(%rbp)         ## 8-byte Spill
	movq	%rax, %rdi
	movq	%rsi, -32(%rbp)         ## 8-byte Spill
	callq	__ZNSt3__113basic_filebufIcNS_11char_traitsIcEEED1Ev
	movq	-32(%rbp), %rax         ## 8-byte Reload
	movq	-24(%rbp), %rcx         ## 8-byte Reload
	addq	$8, %rcx
	movq	%rax, %rdi
	movq	%rcx, %rsi
	callq	__ZNSt3__113basic_istreamIcNS_11char_traitsIcEEED2Ev
Ltmp191:
	.loc	12 131 33               ## /Applications/Xcode.app/Contents/Developer/Toolchains/XcodeDefault.xctoolchain/usr/bin/../include/c++/v1/iosfwd:131:33
	addq	$32, %rsp
	popq	%rbp
	retq
Ltmp192:
Lfunc_end8:
	.cfi_endproc

	.private_extern	__ZTv0_n24_NSt3__114basic_ifstreamIcNS_11char_traitsIcEEED1Ev
	.globl	__ZTv0_n24_NSt3__114basic_ifstreamIcNS_11char_traitsIcEEED1Ev
	.weak_def_can_be_hidden	__ZTv0_n24_NSt3__114basic_ifstreamIcNS_11char_traitsIcEEED1Ev
	.align	4, 0x90
__ZTv0_n24_NSt3__114basic_ifstreamIcNS_11char_traitsIcEEED1Ev: ## @_ZTv0_n24_NSt3__114basic_ifstreamIcNS_11char_traitsIcEEED1Ev
Lfunc_begin9:
	.loc	12 131 0 is_stmt 1      ## /Applications/Xcode.app/Contents/Developer/Toolchains/XcodeDefault.xctoolchain/usr/bin/../include/c++/v1/iosfwd:131:0
	.cfi_startproc
## BB#0:
	pushq	%rbp
Ltmp193:
	.cfi_def_cfa_offset 16
Ltmp194:
	.cfi_offset %rbp, -16
	movq	%rsp, %rbp
Ltmp195:
	.cfi_def_cfa_register %rbp
	subq	$16, %rsp
	movq	%rdi, -8(%rbp)
	.loc	12 131 33 prologue_end  ## /Applications/Xcode.app/Contents/Developer/Toolchains/XcodeDefault.xctoolchain/usr/bin/../include/c++/v1/iosfwd:131:33
Ltmp196:
	movq	-8(%rbp), %rdi
	movq	%rdi, %rax
	movq	(%rdi), %rdi
	addq	-24(%rdi), %rax
	movq	%rax, %rdi
	callq	__ZNSt3__114basic_ifstreamIcNS_11char_traitsIcEEED1Ev
	addq	$16, %rsp
	popq	%rbp
	retq
Ltmp197:
Lfunc_end9:
	.cfi_endproc

	.private_extern	__ZNSt3__114basic_ifstreamIcNS_11char_traitsIcEEED0Ev
	.globl	__ZNSt3__114basic_ifstreamIcNS_11char_traitsIcEEED0Ev
	.weak_def_can_be_hidden	__ZNSt3__114basic_ifstreamIcNS_11char_traitsIcEEED0Ev
	.align	4, 0x90
__ZNSt3__114basic_ifstreamIcNS_11char_traitsIcEEED0Ev: ## @_ZNSt3__114basic_ifstreamIcNS_11char_traitsIcEEED0Ev
Lfunc_begin10:
	.loc	12 131 0                ## /Applications/Xcode.app/Contents/Developer/Toolchains/XcodeDefault.xctoolchain/usr/bin/../include/c++/v1/iosfwd:131:0
	.cfi_startproc
## BB#0:
	pushq	%rbp
Ltmp198:
	.cfi_def_cfa_offset 16
Ltmp199:
	.cfi_offset %rbp, -16
	movq	%rsp, %rbp
Ltmp200:
	.cfi_def_cfa_register %rbp
	subq	$16, %rsp
	movq	%rdi, -8(%rbp)
	movq	-8(%rbp), %rdi
	.loc	12 131 33 prologue_end  ## /Applications/Xcode.app/Contents/Developer/Toolchains/XcodeDefault.xctoolchain/usr/bin/../include/c++/v1/iosfwd:131:33
Ltmp201:
	movq	%rdi, -16(%rbp)         ## 8-byte Spill
	callq	__ZNSt3__114basic_ifstreamIcNS_11char_traitsIcEEED1Ev
	movq	-16(%rbp), %rdi         ## 8-byte Reload
	callq	__ZdlPv
	addq	$16, %rsp
	popq	%rbp
	retq
Ltmp202:
Lfunc_end10:
	.cfi_endproc

	.private_extern	__ZTv0_n24_NSt3__114basic_ifstreamIcNS_11char_traitsIcEEED0Ev
	.globl	__ZTv0_n24_NSt3__114basic_ifstreamIcNS_11char_traitsIcEEED0Ev
	.weak_def_can_be_hidden	__ZTv0_n24_NSt3__114basic_ifstreamIcNS_11char_traitsIcEEED0Ev
	.align	4, 0x90
__ZTv0_n24_NSt3__114basic_ifstreamIcNS_11char_traitsIcEEED0Ev: ## @_ZTv0_n24_NSt3__114basic_ifstreamIcNS_11char_traitsIcEEED0Ev
Lfunc_begin11:
	.loc	12 131 0                ## /Applications/Xcode.app/Contents/Developer/Toolchains/XcodeDefault.xctoolchain/usr/bin/../include/c++/v1/iosfwd:131:0
	.cfi_startproc
## BB#0:
	pushq	%rbp
Ltmp203:
	.cfi_def_cfa_offset 16
Ltmp204:
	.cfi_offset %rbp, -16
	movq	%rsp, %rbp
Ltmp205:
	.cfi_def_cfa_register %rbp
	subq	$16, %rsp
	movq	%rdi, -8(%rbp)
	.loc	12 131 33 prologue_end  ## /Applications/Xcode.app/Contents/Developer/Toolchains/XcodeDefault.xctoolchain/usr/bin/../include/c++/v1/iosfwd:131:33
Ltmp206:
	movq	-8(%rbp), %rdi
	movq	%rdi, %rax
	movq	(%rdi), %rdi
	addq	-24(%rdi), %rax
	movq	%rax, %rdi
	callq	__ZNSt3__114basic_ifstreamIcNS_11char_traitsIcEEED0Ev
	addq	$16, %rsp
	popq	%rbp
	retq
Ltmp207:
Lfunc_end11:
	.cfi_endproc

	.globl	__ZNSt3__113basic_filebufIcNS_11char_traitsIcEEED1Ev
	.weak_def_can_be_hidden	__ZNSt3__113basic_filebufIcNS_11char_traitsIcEEED1Ev
	.align	4, 0x90
__ZNSt3__113basic_filebufIcNS_11char_traitsIcEEED1Ev: ## @_ZNSt3__113basic_filebufIcNS_11char_traitsIcEEED1Ev
Lfunc_begin12:
	.loc	16 356 0                ## /Applications/Xcode.app/Contents/Developer/Toolchains/XcodeDefault.xctoolchain/usr/bin/../include/c++/v1/fstream:356:0
	.cfi_startproc
## BB#0:
	pushq	%rbp
Ltmp208:
	.cfi_def_cfa_offset 16
Ltmp209:
	.cfi_offset %rbp, -16
	movq	%rsp, %rbp
Ltmp210:
	.cfi_def_cfa_register %rbp
	subq	$16, %rsp
	movq	%rdi, -8(%rbp)
	movq	-8(%rbp), %rdi
	.loc	16 356 1 prologue_end   ## /Applications/Xcode.app/Contents/Developer/Toolchains/XcodeDefault.xctoolchain/usr/bin/../include/c++/v1/fstream:356:1
Ltmp211:
	callq	__ZNSt3__113basic_filebufIcNS_11char_traitsIcEEED2Ev
	.loc	16 372 1                ## /Applications/Xcode.app/Contents/Developer/Toolchains/XcodeDefault.xctoolchain/usr/bin/../include/c++/v1/fstream:372:1
	addq	$16, %rsp
	popq	%rbp
	retq
Ltmp212:
Lfunc_end12:
	.cfi_endproc

	.globl	__ZNSt3__113basic_filebufIcNS_11char_traitsIcEEED2Ev
	.weak_def_can_be_hidden	__ZNSt3__113basic_filebufIcNS_11char_traitsIcEEED2Ev
	.align	4, 0x90
__ZNSt3__113basic_filebufIcNS_11char_traitsIcEEED2Ev: ## @_ZNSt3__113basic_filebufIcNS_11char_traitsIcEEED2Ev
Lfunc_begin13:
	.loc	16 356 0                ## /Applications/Xcode.app/Contents/Developer/Toolchains/XcodeDefault.xctoolchain/usr/bin/../include/c++/v1/fstream:356:0
	.cfi_startproc
	.cfi_personality 155, ___gxx_personality_v0
	.cfi_lsda 16, Lexception3
## BB#0:
	pushq	%rbp
Ltmp219:
	.cfi_def_cfa_offset 16
Ltmp220:
	.cfi_offset %rbp, -16
	movq	%rsp, %rbp
Ltmp221:
	.cfi_def_cfa_register %rbp
	subq	$64, %rsp
	##DEBUG_VALUE: ~basic_filebuf:this <- [%RBP+-8]
	movq	%rdi, -8(%rbp)
	movq	%rdi, %rax
	.loc	16 356 1 prologue_end   ## /Applications/Xcode.app/Contents/Developer/Toolchains/XcodeDefault.xctoolchain/usr/bin/../include/c++/v1/fstream:356:1
Ltmp222:
	movq	__ZTVNSt3__113basic_filebufIcNS_11char_traitsIcEEEE@GOTPCREL(%rip), %rcx
	addq	$16, %rcx
	movq	%rcx, (%rdi)
	.loc	16 361 9                ## /Applications/Xcode.app/Contents/Developer/Toolchains/XcodeDefault.xctoolchain/usr/bin/../include/c++/v1/fstream:361:9
Ltmp223:
Ltmp213:
	movq	%rax, -32(%rbp)         ## 8-byte Spill
	callq	__ZNSt3__113basic_filebufIcNS_11char_traitsIcEEE5closeEv
Ltmp214:
	movq	%rax, -40(%rbp)         ## 8-byte Spill
	jmp	LBB13_1
LBB13_1:
	##DEBUG_VALUE: ~basic_filebuf:this <- [%RBP+-8]
	.loc	16 363 5                ## /Applications/Xcode.app/Contents/Developer/Toolchains/XcodeDefault.xctoolchain/usr/bin/../include/c++/v1/fstream:363:5
	jmp	LBB13_5
LBB13_2:
	##DEBUG_VALUE: ~basic_filebuf:this <- [%RBP+-8]
Ltmp215:
	.loc	16 372 1                ## /Applications/Xcode.app/Contents/Developer/Toolchains/XcodeDefault.xctoolchain/usr/bin/../include/c++/v1/fstream:372:1
	movl	%edx, %ecx
	movq	%rax, -16(%rbp)
	movl	%ecx, -20(%rbp)
## BB#3:
	##DEBUG_VALUE: ~basic_filebuf:this <- [%RBP+-8]
	.loc	16 363 5                ## /Applications/Xcode.app/Contents/Developer/Toolchains/XcodeDefault.xctoolchain/usr/bin/../include/c++/v1/fstream:363:5
	movq	-16(%rbp), %rdi
	callq	___cxa_begin_catch
Ltmp224:
	.loc	16 366 5                ## /Applications/Xcode.app/Contents/Developer/Toolchains/XcodeDefault.xctoolchain/usr/bin/../include/c++/v1/fstream:366:5
Ltmp216:
	movq	%rax, -48(%rbp)         ## 8-byte Spill
	callq	___cxa_end_catch
Ltmp217:
	jmp	LBB13_4
LBB13_4:
	##DEBUG_VALUE: ~basic_filebuf:this <- [%RBP+-8]
	jmp	LBB13_5
Ltmp225:
LBB13_5:
	##DEBUG_VALUE: ~basic_filebuf:this <- [%RBP+-8]
	.loc	16 368 9                ## /Applications/Xcode.app/Contents/Developer/Toolchains/XcodeDefault.xctoolchain/usr/bin/../include/c++/v1/fstream:368:9
	movq	-32(%rbp), %rax         ## 8-byte Reload
	testb	$1, 400(%rax)
	je	LBB13_10
## BB#6:
	##DEBUG_VALUE: ~basic_filebuf:this <- [%RBP+-8]
	.loc	16 369 19               ## /Applications/Xcode.app/Contents/Developer/Toolchains/XcodeDefault.xctoolchain/usr/bin/../include/c++/v1/fstream:369:19
Ltmp226:
	movq	-32(%rbp), %rax         ## 8-byte Reload
	movq	64(%rax), %rcx
	.loc	16 369 9 is_stmt 0      ## /Applications/Xcode.app/Contents/Developer/Toolchains/XcodeDefault.xctoolchain/usr/bin/../include/c++/v1/fstream:369:9
	cmpq	$0, %rcx
	movq	%rcx, -56(%rbp)         ## 8-byte Spill
	je	LBB13_8
## BB#7:
	##DEBUG_VALUE: ~basic_filebuf:this <- [%RBP+-8]
	movq	-56(%rbp), %rdi         ## 8-byte Reload
	callq	__ZdaPv
LBB13_8:
	##DEBUG_VALUE: ~basic_filebuf:this <- [%RBP+-8]
	jmp	LBB13_10
Ltmp227:
LBB13_9:
	##DEBUG_VALUE: ~basic_filebuf:this <- [%RBP+-8]
Ltmp218:
	.loc	16 372 1 is_stmt 1      ## /Applications/Xcode.app/Contents/Developer/Toolchains/XcodeDefault.xctoolchain/usr/bin/../include/c++/v1/fstream:372:1
	movl	%edx, %ecx
	movq	%rax, -16(%rbp)
	movl	%ecx, -20(%rbp)
	movq	-32(%rbp), %rax         ## 8-byte Reload
	movq	%rax, %rdi
	callq	__ZNSt3__115basic_streambufIcNS_11char_traitsIcEEED2Ev
	jmp	LBB13_15
LBB13_10:
	##DEBUG_VALUE: ~basic_filebuf:this <- [%RBP+-8]
	.loc	16 370 9                ## /Applications/Xcode.app/Contents/Developer/Toolchains/XcodeDefault.xctoolchain/usr/bin/../include/c++/v1/fstream:370:9
	movq	-32(%rbp), %rax         ## 8-byte Reload
	testb	$1, 401(%rax)
	je	LBB13_14
## BB#11:
	##DEBUG_VALUE: ~basic_filebuf:this <- [%RBP+-8]
	.loc	16 371 19               ## /Applications/Xcode.app/Contents/Developer/Toolchains/XcodeDefault.xctoolchain/usr/bin/../include/c++/v1/fstream:371:19
Ltmp228:
	movq	-32(%rbp), %rax         ## 8-byte Reload
	movq	104(%rax), %rcx
	.loc	16 371 9 is_stmt 0      ## /Applications/Xcode.app/Contents/Developer/Toolchains/XcodeDefault.xctoolchain/usr/bin/../include/c++/v1/fstream:371:9
	cmpq	$0, %rcx
	movq	%rcx, -64(%rbp)         ## 8-byte Spill
	je	LBB13_13
## BB#12:
	##DEBUG_VALUE: ~basic_filebuf:this <- [%RBP+-8]
	movq	-64(%rbp), %rdi         ## 8-byte Reload
	callq	__ZdaPv
LBB13_13:
	##DEBUG_VALUE: ~basic_filebuf:this <- [%RBP+-8]
	jmp	LBB13_14
Ltmp229:
LBB13_14:
	##DEBUG_VALUE: ~basic_filebuf:this <- [%RBP+-8]
	.loc	16 372 1 is_stmt 1      ## /Applications/Xcode.app/Contents/Developer/Toolchains/XcodeDefault.xctoolchain/usr/bin/../include/c++/v1/fstream:372:1
	movq	-32(%rbp), %rax         ## 8-byte Reload
	movq	%rax, %rdi
	callq	__ZNSt3__115basic_streambufIcNS_11char_traitsIcEEED2Ev
Ltmp230:
	.loc	16 372 1 is_stmt 0      ## /Applications/Xcode.app/Contents/Developer/Toolchains/XcodeDefault.xctoolchain/usr/bin/../include/c++/v1/fstream:372:1
	addq	$64, %rsp
	popq	%rbp
	retq
LBB13_15:
	##DEBUG_VALUE: ~basic_filebuf:this <- [%RBP+-8]
	.loc	16 372 1                ## /Applications/Xcode.app/Contents/Developer/Toolchains/XcodeDefault.xctoolchain/usr/bin/../include/c++/v1/fstream:372:1
Ltmp231:
	movq	-16(%rbp), %rdi
	callq	___clang_call_terminate
Ltmp232:
Lfunc_end13:
	.cfi_endproc
	.section	__TEXT,__gcc_except_tab
	.align	2
GCC_except_table13:
Lexception3:
	.byte	255                     ## @LPStart Encoding = omit
	.byte	155                     ## @TType Encoding = indirect pcrel sdata4
	.asciz	"\257\200"              ## @TType base offset
	.byte	3                       ## Call site Encoding = udata4
	.byte	39                      ## Call site table length
Lset40 = Ltmp213-Lfunc_begin13          ## >> Call Site 1 <<
	.long	Lset40
Lset41 = Ltmp214-Ltmp213                ##   Call between Ltmp213 and Ltmp214
	.long	Lset41
Lset42 = Ltmp215-Lfunc_begin13          ##     jumps to Ltmp215
	.long	Lset42
	.byte	1                       ##   On action: 1
Lset43 = Ltmp214-Lfunc_begin13          ## >> Call Site 2 <<
	.long	Lset43
Lset44 = Ltmp216-Ltmp214                ##   Call between Ltmp214 and Ltmp216
	.long	Lset44
	.long	0                       ##     has no landing pad
	.byte	0                       ##   On action: cleanup
Lset45 = Ltmp216-Lfunc_begin13          ## >> Call Site 3 <<
	.long	Lset45
Lset46 = Ltmp217-Ltmp216                ##   Call between Ltmp216 and Ltmp217
	.long	Lset46
Lset47 = Ltmp218-Lfunc_begin13          ##     jumps to Ltmp218
	.long	Lset47
	.byte	1                       ##   On action: 1
	.byte	1                       ## >> Action Record 1 <<
                                        ##   Catch TypeInfo 1
	.byte	0                       ##   No further actions
                                        ## >> Catch TypeInfos <<
	.long	0                       ## TypeInfo 1
	.align	2

	.section	__TEXT,__text,regular,pure_instructions
	.globl	__ZNSt3__113basic_filebufIcNS_11char_traitsIcEEE5closeEv
	.weak_def_can_be_hidden	__ZNSt3__113basic_filebufIcNS_11char_traitsIcEEE5closeEv
	.align	4, 0x90
__ZNSt3__113basic_filebufIcNS_11char_traitsIcEEE5closeEv: ## @_ZNSt3__113basic_filebufIcNS_11char_traitsIcEEE5closeEv
Lfunc_begin14:
	.loc	16 561 0 is_stmt 1      ## /Applications/Xcode.app/Contents/Developer/Toolchains/XcodeDefault.xctoolchain/usr/bin/../include/c++/v1/fstream:561:0
	.cfi_startproc
	.cfi_personality 155, ___gxx_personality_v0
	.cfi_lsda 16, Lexception4
## BB#0:
	pushq	%rbp
Ltmp244:
	.cfi_def_cfa_offset 16
Ltmp245:
	.cfi_offset %rbp, -16
	movq	%rsp, %rbp
Ltmp246:
	.cfi_def_cfa_register %rbp
	subq	$496, %rsp              ## imm = 0x1F0
	movq	%rdi, -392(%rbp)
	movq	-392(%rbp), %rdi
	.loc	16 562 37 prologue_end  ## /Applications/Xcode.app/Contents/Developer/Toolchains/XcodeDefault.xctoolchain/usr/bin/../include/c++/v1/fstream:562:37
Ltmp247:
	movq	$0, -400(%rbp)
	.loc	16 563 9                ## /Applications/Xcode.app/Contents/Developer/Toolchains/XcodeDefault.xctoolchain/usr/bin/../include/c++/v1/fstream:563:9
Ltmp248:
	cmpq	$0, 120(%rdi)
Ltmp249:
	.loc	16 563 9 is_stmt 0      ## /Applications/Xcode.app/Contents/Developer/Toolchains/XcodeDefault.xctoolchain/usr/bin/../include/c++/v1/fstream:563:9
	movq	%rdi, -448(%rbp)        ## 8-byte Spill
	je	LBB14_18
## BB#1:
Ltmp250:
	##DEBUG_VALUE: __h <- [%RBP+-416]
	.loc	16 565 14 is_stmt 1     ## /Applications/Xcode.app/Contents/Developer/Toolchains/XcodeDefault.xctoolchain/usr/bin/../include/c++/v1/fstream:565:14
	movq	-448(%rbp), %rax        ## 8-byte Reload
	movq	%rax, -400(%rbp)
	.loc	16 566 45               ## /Applications/Xcode.app/Contents/Developer/Toolchains/XcodeDefault.xctoolchain/usr/bin/../include/c++/v1/fstream:566:45
	movq	120(%rax), %rcx
	.loc	16 566 54 is_stmt 0     ## /Applications/Xcode.app/Contents/Developer/Toolchains/XcodeDefault.xctoolchain/usr/bin/../include/c++/v1/fstream:566:54
	movq	_fclose@GOTPCREL(%rip), %rdx
	movq	%rdx, -424(%rbp)
	leaq	-416(%rbp), %rdx
	.loc	16 566 41               ## /Applications/Xcode.app/Contents/Developer/Toolchains/XcodeDefault.xctoolchain/usr/bin/../include/c++/v1/fstream:566:41
	movq	%rdx, -368(%rbp)
	movq	%rcx, -376(%rbp)
	leaq	-424(%rbp), %rcx
	movq	%rcx, -384(%rbp)
	movq	-368(%rbp), %rdx
	.loc	9 2606 9 is_stmt 1      ## /Applications/Xcode.app/Contents/Developer/Toolchains/XcodeDefault.xctoolchain/usr/bin/../include/c++/v1/memory:2606:9
Ltmp251:
	movq	-376(%rbp), %rsi
	movq	%rdx, -344(%rbp)
	movq	%rsi, -352(%rbp)
	movq	%rcx, -360(%rbp)
	movq	-344(%rbp), %rdx
	.loc	9 2605 18               ## /Applications/Xcode.app/Contents/Developer/Toolchains/XcodeDefault.xctoolchain/usr/bin/../include/c++/v1/memory:2605:18
Ltmp252:
	movq	-352(%rbp), %rsi
	.loc	9 2605 23 is_stmt 0     ## /Applications/Xcode.app/Contents/Developer/Toolchains/XcodeDefault.xctoolchain/usr/bin/../include/c++/v1/memory:2605:23
	movq	%rcx, -336(%rbp)
	movq	-424(%rbp), %rcx
	.loc	9 2605 11               ## /Applications/Xcode.app/Contents/Developer/Toolchains/XcodeDefault.xctoolchain/usr/bin/../include/c++/v1/memory:2605:11
	movq	%rdx, -312(%rbp)
	movq	%rsi, -320(%rbp)
	movq	%rcx, -328(%rbp)
	movq	-312(%rbp), %rdx
	.loc	9 2415 82 is_stmt 1     ## /Applications/Xcode.app/Contents/Developer/Toolchains/XcodeDefault.xctoolchain/usr/bin/../include/c++/v1/memory:2415:82
Ltmp253:
	movq	-320(%rbp), %rsi
	movq	%rdx, -288(%rbp)
	movq	%rsi, -296(%rbp)
	movq	%rcx, -304(%rbp)
	movq	-288(%rbp), %rcx
	leaq	-296(%rbp), %rdx
	.loc	9 2415 16 is_stmt 0     ## /Applications/Xcode.app/Contents/Developer/Toolchains/XcodeDefault.xctoolchain/usr/bin/../include/c++/v1/memory:2415:16
Ltmp254:
	movq	%rdx, -280(%rbp)
	movq	-296(%rbp), %rdx
	leaq	-304(%rbp), %rsi
	.loc	9 2415 49               ## /Applications/Xcode.app/Contents/Developer/Toolchains/XcodeDefault.xctoolchain/usr/bin/../include/c++/v1/memory:2415:49
	movq	%rsi, -232(%rbp)
	movq	-304(%rbp), %rsi
	.loc	9 2415 11               ## /Applications/Xcode.app/Contents/Developer/Toolchains/XcodeDefault.xctoolchain/usr/bin/../include/c++/v1/memory:2415:11
	movq	%rcx, -256(%rbp)
	movq	%rdx, -264(%rbp)
	movq	%rsi, -272(%rbp)
	movq	-256(%rbp), %rcx
	leaq	-264(%rbp), %rdx
	.loc	9 2053 20 is_stmt 1     ## /Applications/Xcode.app/Contents/Developer/Toolchains/XcodeDefault.xctoolchain/usr/bin/../include/c++/v1/memory:2053:20
Ltmp255:
	movq	%rdx, -248(%rbp)
	movq	-264(%rbp), %rdx
	.loc	9 2053 11 is_stmt 0     ## /Applications/Xcode.app/Contents/Developer/Toolchains/XcodeDefault.xctoolchain/usr/bin/../include/c++/v1/memory:2053:11
	movq	%rdx, (%rcx)
	leaq	-272(%rbp), %rdx
	.loc	9 2053 64               ## /Applications/Xcode.app/Contents/Developer/Toolchains/XcodeDefault.xctoolchain/usr/bin/../include/c++/v1/memory:2053:64
	movq	%rdx, -240(%rbp)
	movq	-272(%rbp), %rdx
	.loc	9 2053 54               ## /Applications/Xcode.app/Contents/Developer/Toolchains/XcodeDefault.xctoolchain/usr/bin/../include/c++/v1/memory:2053:54
	movq	%rdx, 8(%rcx)
Ltmp256:
	.loc	16 567 13 is_stmt 1     ## /Applications/Xcode.app/Contents/Developer/Toolchains/XcodeDefault.xctoolchain/usr/bin/../include/c++/v1/fstream:567:13
	movq	(%rax), %rcx
	movq	48(%rcx), %rcx
Ltmp233:
	movq	%rax, %rdi
	callq	*%rcx
Ltmp234:
	movl	%eax, -452(%rbp)        ## 4-byte Spill
	jmp	LBB14_2
LBB14_2:
	##DEBUG_VALUE: __h <- [%RBP+-416]
	movl	-452(%rbp), %eax        ## 4-byte Reload
	cmpl	$0, %eax
Ltmp257:
	.loc	16 567 13 is_stmt 0     ## /Applications/Xcode.app/Contents/Developer/Toolchains/XcodeDefault.xctoolchain/usr/bin/../include/c++/v1/fstream:567:13
	je	LBB14_9
## BB#3:
	##DEBUG_VALUE: __h <- [%RBP+-416]
	.loc	16 568 18 is_stmt 1     ## /Applications/Xcode.app/Contents/Developer/Toolchains/XcodeDefault.xctoolchain/usr/bin/../include/c++/v1/fstream:568:18
Ltmp258:
	movq	$0, -400(%rbp)
	.loc	16 568 13 is_stmt 0     ## /Applications/Xcode.app/Contents/Developer/Toolchains/XcodeDefault.xctoolchain/usr/bin/../include/c++/v1/fstream:568:13
	jmp	LBB14_9
LBB14_4:
	##DEBUG_VALUE: __h <- [%RBP+-416]
Ltmp237:
	leaq	-416(%rbp), %rcx
	.loc	16 575 1 is_stmt 1      ## /Applications/Xcode.app/Contents/Developer/Toolchains/XcodeDefault.xctoolchain/usr/bin/../include/c++/v1/fstream:575:1
	movl	%edx, %esi
	movq	%rax, -432(%rbp)
	movl	%esi, -436(%rbp)
Ltmp259:
	.loc	16 573 5                ## /Applications/Xcode.app/Contents/Developer/Toolchains/XcodeDefault.xctoolchain/usr/bin/../include/c++/v1/fstream:573:5
	movq	%rcx, -136(%rbp)
	movq	-136(%rbp), %rax
	.loc	9 2692 45               ## /Applications/Xcode.app/Contents/Developer/Toolchains/XcodeDefault.xctoolchain/usr/bin/../include/c++/v1/memory:2692:45
Ltmp260:
	movq	%rax, -128(%rbp)
	movq	-128(%rbp), %rax
	.loc	9 2692 46 is_stmt 0     ## /Applications/Xcode.app/Contents/Developer/Toolchains/XcodeDefault.xctoolchain/usr/bin/../include/c++/v1/memory:2692:46
Ltmp261:
	movq	%rax, -104(%rbp)
	movq	$0, -112(%rbp)
	movq	-104(%rbp), %rax
	.loc	9 2721 25 is_stmt 1     ## /Applications/Xcode.app/Contents/Developer/Toolchains/XcodeDefault.xctoolchain/usr/bin/../include/c++/v1/memory:2721:25
Ltmp262:
	movq	%rax, -96(%rbp)
	movq	-96(%rbp), %rcx
	.loc	9 2464 83               ## /Applications/Xcode.app/Contents/Developer/Toolchains/XcodeDefault.xctoolchain/usr/bin/../include/c++/v1/memory:2464:83
Ltmp263:
	movq	%rcx, -88(%rbp)
	movq	-88(%rbp), %rcx
Ltmp264:
	.loc	9 2721 25               ## /Applications/Xcode.app/Contents/Developer/Toolchains/XcodeDefault.xctoolchain/usr/bin/../include/c++/v1/memory:2721:25
	movq	(%rcx), %rcx
	.loc	9 2721 17 is_stmt 0     ## /Applications/Xcode.app/Contents/Developer/Toolchains/XcodeDefault.xctoolchain/usr/bin/../include/c++/v1/memory:2721:17
	movq	%rcx, -120(%rbp)
	.loc	9 2722 26 is_stmt 1     ## /Applications/Xcode.app/Contents/Developer/Toolchains/XcodeDefault.xctoolchain/usr/bin/../include/c++/v1/memory:2722:26
	movq	-112(%rbp), %rcx
	.loc	9 2722 9 is_stmt 0      ## /Applications/Xcode.app/Contents/Developer/Toolchains/XcodeDefault.xctoolchain/usr/bin/../include/c++/v1/memory:2722:9
	movq	%rax, -80(%rbp)
	movq	-80(%rbp), %rdx
	.loc	9 2464 83 is_stmt 1     ## /Applications/Xcode.app/Contents/Developer/Toolchains/XcodeDefault.xctoolchain/usr/bin/../include/c++/v1/memory:2464:83
Ltmp265:
	movq	%rdx, -72(%rbp)
	movq	-72(%rbp), %rdx
Ltmp266:
	.loc	9 2722 24               ## /Applications/Xcode.app/Contents/Developer/Toolchains/XcodeDefault.xctoolchain/usr/bin/../include/c++/v1/memory:2722:24
	movq	%rcx, (%rdx)
	.loc	9 2723 13               ## /Applications/Xcode.app/Contents/Developer/Toolchains/XcodeDefault.xctoolchain/usr/bin/../include/c++/v1/memory:2723:13
Ltmp267:
	cmpq	$0, -120(%rbp)
Ltmp268:
	.loc	9 2723 13 is_stmt 0     ## /Applications/Xcode.app/Contents/Developer/Toolchains/XcodeDefault.xctoolchain/usr/bin/../include/c++/v1/memory:2723:13
	movq	%rax, -464(%rbp)        ## 8-byte Spill
	je	LBB14_8
## BB#5:
	##DEBUG_VALUE: __h <- [%RBP+-416]
	.loc	9 2724 13 is_stmt 1     ## /Applications/Xcode.app/Contents/Developer/Toolchains/XcodeDefault.xctoolchain/usr/bin/../include/c++/v1/memory:2724:13
Ltmp269:
	movq	-464(%rbp), %rax        ## 8-byte Reload
	movq	%rax, -64(%rbp)
	.loc	9 2467 84               ## /Applications/Xcode.app/Contents/Developer/Toolchains/XcodeDefault.xctoolchain/usr/bin/../include/c++/v1/memory:2467:84
Ltmp270:
	movq	%rax, -56(%rbp)
Ltmp271:
	.loc	9 2724 13               ## /Applications/Xcode.app/Contents/Developer/Toolchains/XcodeDefault.xctoolchain/usr/bin/../include/c++/v1/memory:2724:13
	movq	8(%rax), %rcx
	.loc	9 2724 29 is_stmt 0     ## /Applications/Xcode.app/Contents/Developer/Toolchains/XcodeDefault.xctoolchain/usr/bin/../include/c++/v1/memory:2724:29
	movq	-120(%rbp), %rdi
	.loc	9 2724 13               ## /Applications/Xcode.app/Contents/Developer/Toolchains/XcodeDefault.xctoolchain/usr/bin/../include/c++/v1/memory:2724:13
Ltmp238:
	callq	*%rcx
Ltmp239:
	movl	%eax, -468(%rbp)        ## 4-byte Spill
	jmp	LBB14_6
LBB14_6:
	##DEBUG_VALUE: __h <- [%RBP+-416]
	jmp	LBB14_8
LBB14_7:
	##DEBUG_VALUE: __h <- [%RBP+-416]
Ltmp240:
	movl	%edx, %ecx
	movq	%rax, %rdi
	movl	%ecx, -472(%rbp)        ## 4-byte Spill
	callq	___clang_call_terminate
Ltmp272:
LBB14_8:
	##DEBUG_VALUE: __h <- [%RBP+-416]
	.loc	16 573 5 is_stmt 1      ## /Applications/Xcode.app/Contents/Developer/Toolchains/XcodeDefault.xctoolchain/usr/bin/../include/c++/v1/fstream:573:5
	jmp	LBB14_19
LBB14_9:
	##DEBUG_VALUE: __h <- [%RBP+-416]
	leaq	-416(%rbp), %rax
	.loc	16 569 20               ## /Applications/Xcode.app/Contents/Developer/Toolchains/XcodeDefault.xctoolchain/usr/bin/../include/c++/v1/fstream:569:20
Ltmp273:
	movq	%rax, -40(%rbp)
	.loc	9 2714 23               ## /Applications/Xcode.app/Contents/Developer/Toolchains/XcodeDefault.xctoolchain/usr/bin/../include/c++/v1/memory:2714:23
Ltmp274:
	movq	%rax, -32(%rbp)
	.loc	9 2464 83               ## /Applications/Xcode.app/Contents/Developer/Toolchains/XcodeDefault.xctoolchain/usr/bin/../include/c++/v1/memory:2464:83
Ltmp275:
	movq	%rax, -24(%rbp)
Ltmp276:
	.loc	9 2714 23               ## /Applications/Xcode.app/Contents/Developer/Toolchains/XcodeDefault.xctoolchain/usr/bin/../include/c++/v1/memory:2714:23
	movq	-416(%rbp), %rcx
	.loc	9 2714 17 is_stmt 0     ## /Applications/Xcode.app/Contents/Developer/Toolchains/XcodeDefault.xctoolchain/usr/bin/../include/c++/v1/memory:2714:17
	movq	%rcx, -48(%rbp)
	.loc	9 2715 9 is_stmt 1      ## /Applications/Xcode.app/Contents/Developer/Toolchains/XcodeDefault.xctoolchain/usr/bin/../include/c++/v1/memory:2715:9
	movq	%rax, -16(%rbp)
	.loc	9 2464 83               ## /Applications/Xcode.app/Contents/Developer/Toolchains/XcodeDefault.xctoolchain/usr/bin/../include/c++/v1/memory:2464:83
Ltmp277:
	movq	%rax, -8(%rbp)
Ltmp278:
	.loc	9 2715 24               ## /Applications/Xcode.app/Contents/Developer/Toolchains/XcodeDefault.xctoolchain/usr/bin/../include/c++/v1/memory:2715:24
	movq	$0, -416(%rbp)
	.loc	9 2716 16               ## /Applications/Xcode.app/Contents/Developer/Toolchains/XcodeDefault.xctoolchain/usr/bin/../include/c++/v1/memory:2716:16
	movq	-48(%rbp), %rdi
Ltmp279:
	.loc	16 569 13               ## /Applications/Xcode.app/Contents/Developer/Toolchains/XcodeDefault.xctoolchain/usr/bin/../include/c++/v1/fstream:569:13
Ltmp235:
	callq	_fclose
Ltmp236:
	movl	%eax, -476(%rbp)        ## 4-byte Spill
	jmp	LBB14_10
LBB14_10:
	##DEBUG_VALUE: __h <- [%RBP+-416]
	.loc	16 569 35 is_stmt 0     ## /Applications/Xcode.app/Contents/Developer/Toolchains/XcodeDefault.xctoolchain/usr/bin/../include/c++/v1/fstream:569:35
	movl	-476(%rbp), %eax        ## 4-byte Reload
	cmpl	$0, %eax
Ltmp280:
	.loc	16 569 13               ## /Applications/Xcode.app/Contents/Developer/Toolchains/XcodeDefault.xctoolchain/usr/bin/../include/c++/v1/fstream:569:13
	jne	LBB14_12
## BB#11:
	##DEBUG_VALUE: __h <- [%RBP+-416]
	.loc	16 570 21 is_stmt 1     ## /Applications/Xcode.app/Contents/Developer/Toolchains/XcodeDefault.xctoolchain/usr/bin/../include/c++/v1/fstream:570:21
Ltmp281:
	movq	-448(%rbp), %rax        ## 8-byte Reload
	movq	$0, 120(%rax)
	.loc	16 570 13 is_stmt 0     ## /Applications/Xcode.app/Contents/Developer/Toolchains/XcodeDefault.xctoolchain/usr/bin/../include/c++/v1/fstream:570:13
	jmp	LBB14_13
LBB14_12:
	##DEBUG_VALUE: __h <- [%RBP+-416]
	.loc	16 572 18 is_stmt 1     ## /Applications/Xcode.app/Contents/Developer/Toolchains/XcodeDefault.xctoolchain/usr/bin/../include/c++/v1/fstream:572:18
	movq	$0, -400(%rbp)
Ltmp282:
LBB14_13:
	##DEBUG_VALUE: __h <- [%RBP+-416]
	leaq	-416(%rbp), %rax
	.loc	16 573 5                ## /Applications/Xcode.app/Contents/Developer/Toolchains/XcodeDefault.xctoolchain/usr/bin/../include/c++/v1/fstream:573:5
	movq	%rax, -224(%rbp)
	movq	-224(%rbp), %rax
	.loc	9 2692 45               ## /Applications/Xcode.app/Contents/Developer/Toolchains/XcodeDefault.xctoolchain/usr/bin/../include/c++/v1/memory:2692:45
Ltmp283:
	movq	%rax, -216(%rbp)
	movq	-216(%rbp), %rax
	.loc	9 2692 46 is_stmt 0     ## /Applications/Xcode.app/Contents/Developer/Toolchains/XcodeDefault.xctoolchain/usr/bin/../include/c++/v1/memory:2692:46
Ltmp284:
	movq	%rax, -192(%rbp)
	movq	$0, -200(%rbp)
	movq	-192(%rbp), %rax
	.loc	9 2721 25 is_stmt 1     ## /Applications/Xcode.app/Contents/Developer/Toolchains/XcodeDefault.xctoolchain/usr/bin/../include/c++/v1/memory:2721:25
Ltmp285:
	movq	%rax, -184(%rbp)
	movq	-184(%rbp), %rcx
	.loc	9 2464 83               ## /Applications/Xcode.app/Contents/Developer/Toolchains/XcodeDefault.xctoolchain/usr/bin/../include/c++/v1/memory:2464:83
Ltmp286:
	movq	%rcx, -176(%rbp)
	movq	-176(%rbp), %rcx
Ltmp287:
	.loc	9 2721 25               ## /Applications/Xcode.app/Contents/Developer/Toolchains/XcodeDefault.xctoolchain/usr/bin/../include/c++/v1/memory:2721:25
	movq	(%rcx), %rcx
	.loc	9 2721 17 is_stmt 0     ## /Applications/Xcode.app/Contents/Developer/Toolchains/XcodeDefault.xctoolchain/usr/bin/../include/c++/v1/memory:2721:17
	movq	%rcx, -208(%rbp)
	.loc	9 2722 26 is_stmt 1     ## /Applications/Xcode.app/Contents/Developer/Toolchains/XcodeDefault.xctoolchain/usr/bin/../include/c++/v1/memory:2722:26
	movq	-200(%rbp), %rcx
	.loc	9 2722 9 is_stmt 0      ## /Applications/Xcode.app/Contents/Developer/Toolchains/XcodeDefault.xctoolchain/usr/bin/../include/c++/v1/memory:2722:9
	movq	%rax, -168(%rbp)
	movq	-168(%rbp), %rdx
	.loc	9 2464 83 is_stmt 1     ## /Applications/Xcode.app/Contents/Developer/Toolchains/XcodeDefault.xctoolchain/usr/bin/../include/c++/v1/memory:2464:83
Ltmp288:
	movq	%rdx, -160(%rbp)
	movq	-160(%rbp), %rdx
Ltmp289:
	.loc	9 2722 24               ## /Applications/Xcode.app/Contents/Developer/Toolchains/XcodeDefault.xctoolchain/usr/bin/../include/c++/v1/memory:2722:24
	movq	%rcx, (%rdx)
	.loc	9 2723 13               ## /Applications/Xcode.app/Contents/Developer/Toolchains/XcodeDefault.xctoolchain/usr/bin/../include/c++/v1/memory:2723:13
Ltmp290:
	cmpq	$0, -208(%rbp)
Ltmp291:
	.loc	9 2723 13 is_stmt 0     ## /Applications/Xcode.app/Contents/Developer/Toolchains/XcodeDefault.xctoolchain/usr/bin/../include/c++/v1/memory:2723:13
	movq	%rax, -488(%rbp)        ## 8-byte Spill
	je	LBB14_17
## BB#14:
	##DEBUG_VALUE: __h <- [%RBP+-416]
	.loc	9 2724 13 is_stmt 1     ## /Applications/Xcode.app/Contents/Developer/Toolchains/XcodeDefault.xctoolchain/usr/bin/../include/c++/v1/memory:2724:13
Ltmp292:
	movq	-488(%rbp), %rax        ## 8-byte Reload
	movq	%rax, -152(%rbp)
	.loc	9 2467 84               ## /Applications/Xcode.app/Contents/Developer/Toolchains/XcodeDefault.xctoolchain/usr/bin/../include/c++/v1/memory:2467:84
Ltmp293:
	movq	%rax, -144(%rbp)
Ltmp294:
	.loc	9 2724 13               ## /Applications/Xcode.app/Contents/Developer/Toolchains/XcodeDefault.xctoolchain/usr/bin/../include/c++/v1/memory:2724:13
	movq	8(%rax), %rcx
	.loc	9 2724 29 is_stmt 0     ## /Applications/Xcode.app/Contents/Developer/Toolchains/XcodeDefault.xctoolchain/usr/bin/../include/c++/v1/memory:2724:29
	movq	-208(%rbp), %rdi
	.loc	9 2724 13               ## /Applications/Xcode.app/Contents/Developer/Toolchains/XcodeDefault.xctoolchain/usr/bin/../include/c++/v1/memory:2724:13
Ltmp241:
	callq	*%rcx
Ltmp242:
	movl	%eax, -492(%rbp)        ## 4-byte Spill
	jmp	LBB14_15
LBB14_15:
	##DEBUG_VALUE: __h <- [%RBP+-416]
	jmp	LBB14_17
LBB14_16:
	##DEBUG_VALUE: __h <- [%RBP+-416]
Ltmp243:
	movl	%edx, %ecx
	movq	%rax, %rdi
	movl	%ecx, -496(%rbp)        ## 4-byte Spill
	callq	___clang_call_terminate
Ltmp295:
LBB14_17:
	##DEBUG_VALUE: __h <- [%RBP+-416]
	.loc	16 573 5 is_stmt 1      ## /Applications/Xcode.app/Contents/Developer/Toolchains/XcodeDefault.xctoolchain/usr/bin/../include/c++/v1/fstream:573:5
	jmp	LBB14_18
Ltmp296:
LBB14_18:
	.loc	16 574 12               ## /Applications/Xcode.app/Contents/Developer/Toolchains/XcodeDefault.xctoolchain/usr/bin/../include/c++/v1/fstream:574:12
	movq	-400(%rbp), %rax
	.loc	16 574 5 is_stmt 0      ## /Applications/Xcode.app/Contents/Developer/Toolchains/XcodeDefault.xctoolchain/usr/bin/../include/c++/v1/fstream:574:5
	addq	$496, %rsp              ## imm = 0x1F0
	popq	%rbp
	retq
LBB14_19:
	##DEBUG_VALUE: __h <- [%RBP+-416]
	.loc	16 573 5 is_stmt 1      ## /Applications/Xcode.app/Contents/Developer/Toolchains/XcodeDefault.xctoolchain/usr/bin/../include/c++/v1/fstream:573:5
Ltmp297:
	movq	-432(%rbp), %rdi
	callq	__Unwind_Resume
Ltmp298:
Lfunc_end14:
	.cfi_endproc
	.file	63 "/Applications/Xcode.app/Contents/Developer/Toolchains/XcodeDefault.xctoolchain/usr/bin/../include/c++/v1" "cstddef"
	.section	__TEXT,__gcc_except_tab
	.align	2
GCC_except_table14:
Lexception4:
	.byte	255                     ## @LPStart Encoding = omit
	.byte	155                     ## @TType Encoding = indirect pcrel sdata4
	.byte	73                      ## @TType base offset
	.byte	3                       ## Call site Encoding = udata4
	.byte	65                      ## Call site table length
Lset48 = Ltmp233-Lfunc_begin14          ## >> Call Site 1 <<
	.long	Lset48
Lset49 = Ltmp234-Ltmp233                ##   Call between Ltmp233 and Ltmp234
	.long	Lset49
Lset50 = Ltmp237-Lfunc_begin14          ##     jumps to Ltmp237
	.long	Lset50
	.byte	0                       ##   On action: cleanup
Lset51 = Ltmp238-Lfunc_begin14          ## >> Call Site 2 <<
	.long	Lset51
Lset52 = Ltmp239-Ltmp238                ##   Call between Ltmp238 and Ltmp239
	.long	Lset52
Lset53 = Ltmp240-Lfunc_begin14          ##     jumps to Ltmp240
	.long	Lset53
	.byte	1                       ##   On action: 1
Lset54 = Ltmp235-Lfunc_begin14          ## >> Call Site 3 <<
	.long	Lset54
Lset55 = Ltmp236-Ltmp235                ##   Call between Ltmp235 and Ltmp236
	.long	Lset55
Lset56 = Ltmp237-Lfunc_begin14          ##     jumps to Ltmp237
	.long	Lset56
	.byte	0                       ##   On action: cleanup
Lset57 = Ltmp241-Lfunc_begin14          ## >> Call Site 4 <<
	.long	Lset57
Lset58 = Ltmp242-Ltmp241                ##   Call between Ltmp241 and Ltmp242
	.long	Lset58
Lset59 = Ltmp243-Lfunc_begin14          ##     jumps to Ltmp243
	.long	Lset59
	.byte	1                       ##   On action: 1
Lset60 = Ltmp242-Lfunc_begin14          ## >> Call Site 5 <<
	.long	Lset60
Lset61 = Lfunc_end14-Ltmp242            ##   Call between Ltmp242 and Lfunc_end14
	.long	Lset61
	.long	0                       ##     has no landing pad
	.byte	0                       ##   On action: cleanup
	.byte	1                       ## >> Action Record 1 <<
                                        ##   Catch TypeInfo 1
	.byte	0                       ##   No further actions
                                        ## >> Catch TypeInfos <<
	.long	0                       ## TypeInfo 1
	.align	2

	.section	__TEXT,__text,regular,pure_instructions
	.private_extern	___clang_call_terminate
	.globl	___clang_call_terminate
	.weak_def_can_be_hidden	___clang_call_terminate
	.align	4, 0x90
___clang_call_terminate:                ## @__clang_call_terminate
Lfunc_begin15:
	.cfi_startproc
## BB#0:
	pushq	%rax
Ltmp299:
	.cfi_def_cfa_offset 16
	callq	___cxa_begin_catch
	movq	%rax, (%rsp)            ## 8-byte Spill
	callq	__ZSt9terminatev
Lfunc_end15:
	.cfi_endproc

	.globl	__ZNSt3__113basic_filebufIcNS_11char_traitsIcEEED0Ev
	.weak_def_can_be_hidden	__ZNSt3__113basic_filebufIcNS_11char_traitsIcEEED0Ev
	.align	4, 0x90
__ZNSt3__113basic_filebufIcNS_11char_traitsIcEEED0Ev: ## @_ZNSt3__113basic_filebufIcNS_11char_traitsIcEEED0Ev
Lfunc_begin16:
	.loc	16 356 0                ## /Applications/Xcode.app/Contents/Developer/Toolchains/XcodeDefault.xctoolchain/usr/bin/../include/c++/v1/fstream:356:0
	.cfi_startproc
## BB#0:
	pushq	%rbp
Ltmp300:
	.cfi_def_cfa_offset 16
Ltmp301:
	.cfi_offset %rbp, -16
	movq	%rsp, %rbp
Ltmp302:
	.cfi_def_cfa_register %rbp
	subq	$16, %rsp
	movq	%rdi, -8(%rbp)
	movq	-8(%rbp), %rdi
	.loc	16 356 1 prologue_end   ## /Applications/Xcode.app/Contents/Developer/Toolchains/XcodeDefault.xctoolchain/usr/bin/../include/c++/v1/fstream:356:1
Ltmp303:
	movq	%rdi, -16(%rbp)         ## 8-byte Spill
	callq	__ZNSt3__113basic_filebufIcNS_11char_traitsIcEEED1Ev
	movq	-16(%rbp), %rdi         ## 8-byte Reload
	callq	__ZdlPv
	.loc	16 372 1                ## /Applications/Xcode.app/Contents/Developer/Toolchains/XcodeDefault.xctoolchain/usr/bin/../include/c++/v1/fstream:372:1
	addq	$16, %rsp
	popq	%rbp
	retq
Ltmp304:
Lfunc_end16:
	.cfi_endproc

	.globl	__ZNSt3__113basic_filebufIcNS_11char_traitsIcEEE5imbueERKNS_6localeE
	.weak_def_can_be_hidden	__ZNSt3__113basic_filebufIcNS_11char_traitsIcEEE5imbueERKNS_6localeE
	.align	4, 0x90
__ZNSt3__113basic_filebufIcNS_11char_traitsIcEEE5imbueERKNS_6localeE: ## @_ZNSt3__113basic_filebufIcNS_11char_traitsIcEEE5imbueERKNS_6localeE
Lfunc_begin17:
	.loc	16 917 0                ## /Applications/Xcode.app/Contents/Developer/Toolchains/XcodeDefault.xctoolchain/usr/bin/../include/c++/v1/fstream:917:0
	.cfi_startproc
## BB#0:
	pushq	%rbp
Ltmp305:
	.cfi_def_cfa_offset 16
Ltmp306:
	.cfi_offset %rbp, -16
	movq	%rsp, %rbp
Ltmp307:
	.cfi_def_cfa_register %rbp
	subq	$144, %rsp
	movq	%rdi, -80(%rbp)
	movq	%rsi, -88(%rbp)
	movq	-80(%rbp), %rsi
	.loc	16 918 5 prologue_end   ## /Applications/Xcode.app/Contents/Developer/Toolchains/XcodeDefault.xctoolchain/usr/bin/../include/c++/v1/fstream:918:5
Ltmp308:
	movq	(%rsi), %rdi
	movq	%rdi, -104(%rbp)        ## 8-byte Spill
	movq	%rsi, %rdi
	movq	-104(%rbp), %rax        ## 8-byte Reload
	movq	%rsi, -112(%rbp)        ## 8-byte Spill
	callq	*48(%rax)
	movq	__ZNSt3__17codecvtIcc11__mbstate_tE2idE@GOTPCREL(%rip), %rsi
	.loc	16 919 63               ## /Applications/Xcode.app/Contents/Developer/Toolchains/XcodeDefault.xctoolchain/usr/bin/../include/c++/v1/fstream:919:63
	movq	-88(%rbp), %rdi
	.loc	16 919 14 is_stmt 0     ## /Applications/Xcode.app/Contents/Developer/Toolchains/XcodeDefault.xctoolchain/usr/bin/../include/c++/v1/fstream:919:14
	movq	%rdi, -72(%rbp)
	.loc	7 187 40 is_stmt 1      ## /Applications/Xcode.app/Contents/Developer/Toolchains/XcodeDefault.xctoolchain/usr/bin/../include/c++/v1/__locale:187:40
Ltmp309:
	movq	-72(%rbp), %rdi
	movl	%eax, -116(%rbp)        ## 4-byte Spill
	callq	__ZNKSt3__16locale9use_facetERNS0_2idE
Ltmp310:
	.loc	16 919 11               ## /Applications/Xcode.app/Contents/Developer/Toolchains/XcodeDefault.xctoolchain/usr/bin/../include/c++/v1/fstream:919:11
	movq	-112(%rbp), %rsi        ## 8-byte Reload
	movq	%rax, 128(%rsi)
	.loc	16 920 22               ## /Applications/Xcode.app/Contents/Developer/Toolchains/XcodeDefault.xctoolchain/usr/bin/../include/c++/v1/fstream:920:22
	movb	402(%rsi), %cl
	.loc	16 920 10 is_stmt 0     ## /Applications/Xcode.app/Contents/Developer/Toolchains/XcodeDefault.xctoolchain/usr/bin/../include/c++/v1/fstream:920:10
	andb	$1, %cl
	movb	%cl, -89(%rbp)
	.loc	16 921 24 is_stmt 1     ## /Applications/Xcode.app/Contents/Developer/Toolchains/XcodeDefault.xctoolchain/usr/bin/../include/c++/v1/fstream:921:24
	movq	128(%rsi), %rax
	movq	%rax, -64(%rbp)
	movq	-64(%rbp), %rax
	.loc	7 867 16                ## /Applications/Xcode.app/Contents/Developer/Toolchains/XcodeDefault.xctoolchain/usr/bin/../include/c++/v1/__locale:867:16
Ltmp311:
	movq	(%rax), %rdi
	movq	%rdi, -128(%rbp)        ## 8-byte Spill
	movq	%rax, %rdi
	movq	-128(%rbp), %rax        ## 8-byte Reload
	callq	*56(%rax)
Ltmp312:
	.loc	16 921 22               ## /Applications/Xcode.app/Contents/Developer/Toolchains/XcodeDefault.xctoolchain/usr/bin/../include/c++/v1/fstream:921:22
	andb	$1, %al
	movq	-112(%rbp), %rsi        ## 8-byte Reload
	movb	%al, 402(%rsi)
	.loc	16 922 9                ## /Applications/Xcode.app/Contents/Developer/Toolchains/XcodeDefault.xctoolchain/usr/bin/../include/c++/v1/fstream:922:9
Ltmp313:
	movb	-89(%rbp), %al
	andb	$1, %al
	movzbl	%al, %edx
	.loc	16 922 22 is_stmt 0     ## /Applications/Xcode.app/Contents/Developer/Toolchains/XcodeDefault.xctoolchain/usr/bin/../include/c++/v1/fstream:922:22
	movb	402(%rsi), %al
	andb	$1, %al
	movzbl	%al, %r8d
	.loc	16 922 19               ## /Applications/Xcode.app/Contents/Developer/Toolchains/XcodeDefault.xctoolchain/usr/bin/../include/c++/v1/fstream:922:19
	cmpl	%r8d, %edx
Ltmp314:
	.loc	16 922 9                ## /Applications/Xcode.app/Contents/Developer/Toolchains/XcodeDefault.xctoolchain/usr/bin/../include/c++/v1/fstream:922:9
	je	LBB17_13
## BB#1:
	.loc	16 924 9 is_stmt 1      ## /Applications/Xcode.app/Contents/Developer/Toolchains/XcodeDefault.xctoolchain/usr/bin/../include/c++/v1/fstream:924:9
Ltmp315:
	movq	-112(%rbp), %rax        ## 8-byte Reload
	movq	%rax, -32(%rbp)
	movq	$0, -40(%rbp)
	movq	$0, -48(%rbp)
	movq	$0, -56(%rbp)
	movq	-32(%rbp), %rax
	.loc	15 427 15               ## /Applications/Xcode.app/Contents/Developer/Toolchains/XcodeDefault.xctoolchain/usr/bin/../include/c++/v1/streambuf:427:15
Ltmp316:
	movq	-40(%rbp), %rcx
	.loc	15 427 13 is_stmt 0     ## /Applications/Xcode.app/Contents/Developer/Toolchains/XcodeDefault.xctoolchain/usr/bin/../include/c++/v1/streambuf:427:13
	movq	%rcx, 16(%rax)
	.loc	15 428 15 is_stmt 1     ## /Applications/Xcode.app/Contents/Developer/Toolchains/XcodeDefault.xctoolchain/usr/bin/../include/c++/v1/streambuf:428:15
	movq	-48(%rbp), %rcx
	.loc	15 428 13 is_stmt 0     ## /Applications/Xcode.app/Contents/Developer/Toolchains/XcodeDefault.xctoolchain/usr/bin/../include/c++/v1/streambuf:428:13
	movq	%rcx, 24(%rax)
	.loc	15 429 15 is_stmt 1     ## /Applications/Xcode.app/Contents/Developer/Toolchains/XcodeDefault.xctoolchain/usr/bin/../include/c++/v1/streambuf:429:15
	movq	-56(%rbp), %rcx
	.loc	15 429 13 is_stmt 0     ## /Applications/Xcode.app/Contents/Developer/Toolchains/XcodeDefault.xctoolchain/usr/bin/../include/c++/v1/streambuf:429:13
	movq	%rcx, 32(%rax)
Ltmp317:
	.loc	16 925 9 is_stmt 1      ## /Applications/Xcode.app/Contents/Developer/Toolchains/XcodeDefault.xctoolchain/usr/bin/../include/c++/v1/fstream:925:9
	movq	-112(%rbp), %rax        ## 8-byte Reload
	movq	%rax, -8(%rbp)
	movq	$0, -16(%rbp)
	movq	$0, -24(%rbp)
	movq	-8(%rbp), %rax
	.loc	15 445 25               ## /Applications/Xcode.app/Contents/Developer/Toolchains/XcodeDefault.xctoolchain/usr/bin/../include/c++/v1/streambuf:445:25
Ltmp318:
	movq	-16(%rbp), %rcx
	.loc	15 445 23 is_stmt 0     ## /Applications/Xcode.app/Contents/Developer/Toolchains/XcodeDefault.xctoolchain/usr/bin/../include/c++/v1/streambuf:445:23
	movq	%rcx, 48(%rax)
	.loc	15 445 13               ## /Applications/Xcode.app/Contents/Developer/Toolchains/XcodeDefault.xctoolchain/usr/bin/../include/c++/v1/streambuf:445:13
	movq	%rcx, 40(%rax)
	.loc	15 446 15 is_stmt 1     ## /Applications/Xcode.app/Contents/Developer/Toolchains/XcodeDefault.xctoolchain/usr/bin/../include/c++/v1/streambuf:446:15
	movq	-24(%rbp), %rcx
	.loc	15 446 13 is_stmt 0     ## /Applications/Xcode.app/Contents/Developer/Toolchains/XcodeDefault.xctoolchain/usr/bin/../include/c++/v1/streambuf:446:13
	movq	%rcx, 56(%rax)
Ltmp319:
	.loc	16 927 13 is_stmt 1     ## /Applications/Xcode.app/Contents/Developer/Toolchains/XcodeDefault.xctoolchain/usr/bin/../include/c++/v1/fstream:927:13
	movq	-112(%rbp), %rax        ## 8-byte Reload
	testb	$1, 402(%rax)
	je	LBB17_7
## BB#2:
	.loc	16 929 17               ## /Applications/Xcode.app/Contents/Developer/Toolchains/XcodeDefault.xctoolchain/usr/bin/../include/c++/v1/fstream:929:17
Ltmp320:
	movq	-112(%rbp), %rax        ## 8-byte Reload
	testb	$1, 400(%rax)
	je	LBB17_6
## BB#3:
	.loc	16 930 27               ## /Applications/Xcode.app/Contents/Developer/Toolchains/XcodeDefault.xctoolchain/usr/bin/../include/c++/v1/fstream:930:27
Ltmp321:
	movq	-112(%rbp), %rax        ## 8-byte Reload
	movq	64(%rax), %rcx
	.loc	16 930 17 is_stmt 0     ## /Applications/Xcode.app/Contents/Developer/Toolchains/XcodeDefault.xctoolchain/usr/bin/../include/c++/v1/fstream:930:17
	cmpq	$0, %rcx
	movq	%rcx, -136(%rbp)        ## 8-byte Spill
	je	LBB17_5
## BB#4:
	movq	-136(%rbp), %rdi        ## 8-byte Reload
	callq	__ZdaPv
LBB17_5:
	jmp	LBB17_6
Ltmp322:
LBB17_6:
	.loc	16 931 26 is_stmt 1     ## /Applications/Xcode.app/Contents/Developer/Toolchains/XcodeDefault.xctoolchain/usr/bin/../include/c++/v1/fstream:931:26
	movq	-112(%rbp), %rax        ## 8-byte Reload
	movb	401(%rax), %cl
	.loc	16 931 24 is_stmt 0     ## /Applications/Xcode.app/Contents/Developer/Toolchains/XcodeDefault.xctoolchain/usr/bin/../include/c++/v1/fstream:931:24
	andb	$1, %cl
	movb	%cl, 400(%rax)
	.loc	16 932 22 is_stmt 1     ## /Applications/Xcode.app/Contents/Developer/Toolchains/XcodeDefault.xctoolchain/usr/bin/../include/c++/v1/fstream:932:22
	movq	112(%rax), %rdx
	.loc	16 932 20 is_stmt 0     ## /Applications/Xcode.app/Contents/Developer/Toolchains/XcodeDefault.xctoolchain/usr/bin/../include/c++/v1/fstream:932:20
	movq	%rdx, 96(%rax)
	.loc	16 933 32 is_stmt 1     ## /Applications/Xcode.app/Contents/Developer/Toolchains/XcodeDefault.xctoolchain/usr/bin/../include/c++/v1/fstream:933:32
	movq	104(%rax), %rdx
	.loc	16 933 23 is_stmt 0     ## /Applications/Xcode.app/Contents/Developer/Toolchains/XcodeDefault.xctoolchain/usr/bin/../include/c++/v1/fstream:933:23
	movq	%rdx, 64(%rax)
	.loc	16 934 20 is_stmt 1     ## /Applications/Xcode.app/Contents/Developer/Toolchains/XcodeDefault.xctoolchain/usr/bin/../include/c++/v1/fstream:934:20
	movq	$0, 112(%rax)
	.loc	16 935 23               ## /Applications/Xcode.app/Contents/Developer/Toolchains/XcodeDefault.xctoolchain/usr/bin/../include/c++/v1/fstream:935:23
	movq	$0, 104(%rax)
	.loc	16 936 24               ## /Applications/Xcode.app/Contents/Developer/Toolchains/XcodeDefault.xctoolchain/usr/bin/../include/c++/v1/fstream:936:24
	movb	$0, 401(%rax)
	.loc	16 937 9                ## /Applications/Xcode.app/Contents/Developer/Toolchains/XcodeDefault.xctoolchain/usr/bin/../include/c++/v1/fstream:937:9
	jmp	LBB17_12
Ltmp323:
LBB17_7:
	.loc	16 940 29               ## /Applications/Xcode.app/Contents/Developer/Toolchains/XcodeDefault.xctoolchain/usr/bin/../include/c++/v1/fstream:940:29
	movq	-112(%rbp), %rax        ## 8-byte Reload
	testb	$1, 400(%rax)
	jne	LBB17_10
## BB#8:
	.loc	16 940 32 is_stmt 0     ## /Applications/Xcode.app/Contents/Developer/Toolchains/XcodeDefault.xctoolchain/usr/bin/../include/c++/v1/fstream:940:32
	movq	-112(%rbp), %rax        ## 8-byte Reload
	movq	64(%rax), %rcx
	.loc	16 940 45               ## /Applications/Xcode.app/Contents/Developer/Toolchains/XcodeDefault.xctoolchain/usr/bin/../include/c++/v1/fstream:940:45
	addq	$88, %rax
	.loc	16 940 42               ## /Applications/Xcode.app/Contents/Developer/Toolchains/XcodeDefault.xctoolchain/usr/bin/../include/c++/v1/fstream:940:42
	cmpq	%rax, %rcx
Ltmp324:
	.loc	16 940 17               ## /Applications/Xcode.app/Contents/Developer/Toolchains/XcodeDefault.xctoolchain/usr/bin/../include/c++/v1/fstream:940:17
	je	LBB17_10
## BB#9:
	.loc	16 942 26 is_stmt 1     ## /Applications/Xcode.app/Contents/Developer/Toolchains/XcodeDefault.xctoolchain/usr/bin/../include/c++/v1/fstream:942:26
Ltmp325:
	movq	-112(%rbp), %rax        ## 8-byte Reload
	movq	96(%rax), %rcx
	.loc	16 942 24 is_stmt 0     ## /Applications/Xcode.app/Contents/Developer/Toolchains/XcodeDefault.xctoolchain/usr/bin/../include/c++/v1/fstream:942:24
	movq	%rcx, 112(%rax)
	.loc	16 943 41 is_stmt 1     ## /Applications/Xcode.app/Contents/Developer/Toolchains/XcodeDefault.xctoolchain/usr/bin/../include/c++/v1/fstream:943:41
	movq	64(%rax), %rcx
	.loc	16 943 27 is_stmt 0     ## /Applications/Xcode.app/Contents/Developer/Toolchains/XcodeDefault.xctoolchain/usr/bin/../include/c++/v1/fstream:943:27
	movq	%rcx, 104(%rax)
	.loc	16 944 28 is_stmt 1     ## /Applications/Xcode.app/Contents/Developer/Toolchains/XcodeDefault.xctoolchain/usr/bin/../include/c++/v1/fstream:944:28
	movb	$0, 401(%rax)
	.loc	16 945 38               ## /Applications/Xcode.app/Contents/Developer/Toolchains/XcodeDefault.xctoolchain/usr/bin/../include/c++/v1/fstream:945:38
	movq	96(%rax), %rdi
	.loc	16 945 29 is_stmt 0     ## /Applications/Xcode.app/Contents/Developer/Toolchains/XcodeDefault.xctoolchain/usr/bin/../include/c++/v1/fstream:945:29
	callq	__Znam
	.loc	16 945 27               ## /Applications/Xcode.app/Contents/Developer/Toolchains/XcodeDefault.xctoolchain/usr/bin/../include/c++/v1/fstream:945:27
	movq	-112(%rbp), %rcx        ## 8-byte Reload
	movq	%rax, 64(%rcx)
	.loc	16 946 28 is_stmt 1     ## /Applications/Xcode.app/Contents/Developer/Toolchains/XcodeDefault.xctoolchain/usr/bin/../include/c++/v1/fstream:946:28
	movb	$1, 400(%rcx)
	.loc	16 947 13               ## /Applications/Xcode.app/Contents/Developer/Toolchains/XcodeDefault.xctoolchain/usr/bin/../include/c++/v1/fstream:947:13
	jmp	LBB17_11
Ltmp326:
LBB17_10:
	.loc	16 950 26               ## /Applications/Xcode.app/Contents/Developer/Toolchains/XcodeDefault.xctoolchain/usr/bin/../include/c++/v1/fstream:950:26
	movq	-112(%rbp), %rax        ## 8-byte Reload
	movq	96(%rax), %rcx
	.loc	16 950 24 is_stmt 0     ## /Applications/Xcode.app/Contents/Developer/Toolchains/XcodeDefault.xctoolchain/usr/bin/../include/c++/v1/fstream:950:24
	movq	%rcx, 112(%rax)
	.loc	16 951 43 is_stmt 1     ## /Applications/Xcode.app/Contents/Developer/Toolchains/XcodeDefault.xctoolchain/usr/bin/../include/c++/v1/fstream:951:43
	movq	112(%rax), %rdi
	.loc	16 951 29 is_stmt 0     ## /Applications/Xcode.app/Contents/Developer/Toolchains/XcodeDefault.xctoolchain/usr/bin/../include/c++/v1/fstream:951:29
	callq	__Znam
	.loc	16 951 27               ## /Applications/Xcode.app/Contents/Developer/Toolchains/XcodeDefault.xctoolchain/usr/bin/../include/c++/v1/fstream:951:27
	movq	-112(%rbp), %rcx        ## 8-byte Reload
	movq	%rax, 104(%rcx)
	.loc	16 952 28 is_stmt 1     ## /Applications/Xcode.app/Contents/Developer/Toolchains/XcodeDefault.xctoolchain/usr/bin/../include/c++/v1/fstream:952:28
	movb	$1, 401(%rcx)
Ltmp327:
LBB17_11:
	jmp	LBB17_12
LBB17_12:
	.loc	16 955 5                ## /Applications/Xcode.app/Contents/Developer/Toolchains/XcodeDefault.xctoolchain/usr/bin/../include/c++/v1/fstream:955:5
	jmp	LBB17_13
Ltmp328:
LBB17_13:
	.loc	16 956 1                ## /Applications/Xcode.app/Contents/Developer/Toolchains/XcodeDefault.xctoolchain/usr/bin/../include/c++/v1/fstream:956:1
	addq	$144, %rsp
	popq	%rbp
	retq
Ltmp329:
Lfunc_end17:
	.cfi_endproc

	.globl	__ZNSt3__113basic_filebufIcNS_11char_traitsIcEEE6setbufEPcl
	.weak_def_can_be_hidden	__ZNSt3__113basic_filebufIcNS_11char_traitsIcEEE6setbufEPcl
	.align	4, 0x90
__ZNSt3__113basic_filebufIcNS_11char_traitsIcEEE6setbufEPcl: ## @_ZNSt3__113basic_filebufIcNS_11char_traitsIcEEE6setbufEPcl
Lfunc_begin18:
	.loc	16 736 0                ## /Applications/Xcode.app/Contents/Developer/Toolchains/XcodeDefault.xctoolchain/usr/bin/../include/c++/v1/fstream:736:0
	.cfi_startproc
## BB#0:
	pushq	%rbp
Ltmp330:
	.cfi_def_cfa_offset 16
Ltmp331:
	.cfi_offset %rbp, -16
	movq	%rsp, %rbp
Ltmp332:
	.cfi_def_cfa_register %rbp
	subq	$192, %rsp
	movq	%rdi, -136(%rbp)
	movq	%rsi, -144(%rbp)
	movq	%rdx, -152(%rbp)
	movq	-136(%rbp), %rdx
	.loc	16 737 5 prologue_end   ## /Applications/Xcode.app/Contents/Developer/Toolchains/XcodeDefault.xctoolchain/usr/bin/../include/c++/v1/fstream:737:5
Ltmp333:
	movq	%rdx, %rsi
	movq	%rsi, -104(%rbp)
	movq	$0, -112(%rbp)
	movq	$0, -120(%rbp)
	movq	$0, -128(%rbp)
	movq	-104(%rbp), %rsi
	.loc	15 427 15               ## /Applications/Xcode.app/Contents/Developer/Toolchains/XcodeDefault.xctoolchain/usr/bin/../include/c++/v1/streambuf:427:15
Ltmp334:
	movq	-112(%rbp), %rdi
	.loc	15 427 13 is_stmt 0     ## /Applications/Xcode.app/Contents/Developer/Toolchains/XcodeDefault.xctoolchain/usr/bin/../include/c++/v1/streambuf:427:13
	movq	%rdi, 16(%rsi)
	.loc	15 428 15 is_stmt 1     ## /Applications/Xcode.app/Contents/Developer/Toolchains/XcodeDefault.xctoolchain/usr/bin/../include/c++/v1/streambuf:428:15
	movq	-120(%rbp), %rdi
	.loc	15 428 13 is_stmt 0     ## /Applications/Xcode.app/Contents/Developer/Toolchains/XcodeDefault.xctoolchain/usr/bin/../include/c++/v1/streambuf:428:13
	movq	%rdi, 24(%rsi)
	.loc	15 429 15 is_stmt 1     ## /Applications/Xcode.app/Contents/Developer/Toolchains/XcodeDefault.xctoolchain/usr/bin/../include/c++/v1/streambuf:429:15
	movq	-128(%rbp), %rdi
	.loc	15 429 13 is_stmt 0     ## /Applications/Xcode.app/Contents/Developer/Toolchains/XcodeDefault.xctoolchain/usr/bin/../include/c++/v1/streambuf:429:13
	movq	%rdi, 32(%rsi)
Ltmp335:
	.loc	16 738 5 is_stmt 1      ## /Applications/Xcode.app/Contents/Developer/Toolchains/XcodeDefault.xctoolchain/usr/bin/../include/c++/v1/fstream:738:5
	movq	%rdx, %rsi
	movq	%rsi, -8(%rbp)
	movq	$0, -16(%rbp)
	movq	$0, -24(%rbp)
	movq	-8(%rbp), %rsi
	.loc	15 445 25               ## /Applications/Xcode.app/Contents/Developer/Toolchains/XcodeDefault.xctoolchain/usr/bin/../include/c++/v1/streambuf:445:25
Ltmp336:
	movq	-16(%rbp), %rdi
	.loc	15 445 23 is_stmt 0     ## /Applications/Xcode.app/Contents/Developer/Toolchains/XcodeDefault.xctoolchain/usr/bin/../include/c++/v1/streambuf:445:23
	movq	%rdi, 48(%rsi)
	.loc	15 445 13               ## /Applications/Xcode.app/Contents/Developer/Toolchains/XcodeDefault.xctoolchain/usr/bin/../include/c++/v1/streambuf:445:13
	movq	%rdi, 40(%rsi)
	.loc	15 446 15 is_stmt 1     ## /Applications/Xcode.app/Contents/Developer/Toolchains/XcodeDefault.xctoolchain/usr/bin/../include/c++/v1/streambuf:446:15
	movq	-24(%rbp), %rdi
	.loc	15 446 13 is_stmt 0     ## /Applications/Xcode.app/Contents/Developer/Toolchains/XcodeDefault.xctoolchain/usr/bin/../include/c++/v1/streambuf:446:13
	movq	%rdi, 56(%rsi)
Ltmp337:
	.loc	16 739 9 is_stmt 1      ## /Applications/Xcode.app/Contents/Developer/Toolchains/XcodeDefault.xctoolchain/usr/bin/../include/c++/v1/fstream:739:9
	testb	$1, 400(%rdx)
	movq	%rdx, -168(%rbp)        ## 8-byte Spill
	je	LBB18_4
## BB#1:
	.loc	16 740 19               ## /Applications/Xcode.app/Contents/Developer/Toolchains/XcodeDefault.xctoolchain/usr/bin/../include/c++/v1/fstream:740:19
Ltmp338:
	movq	-168(%rbp), %rax        ## 8-byte Reload
	movq	64(%rax), %rcx
	.loc	16 740 9 is_stmt 0      ## /Applications/Xcode.app/Contents/Developer/Toolchains/XcodeDefault.xctoolchain/usr/bin/../include/c++/v1/fstream:740:9
	cmpq	$0, %rcx
	movq	%rcx, -176(%rbp)        ## 8-byte Spill
	je	LBB18_3
## BB#2:
	movq	-176(%rbp), %rdi        ## 8-byte Reload
	callq	__ZdaPv
LBB18_3:
	jmp	LBB18_4
Ltmp339:
LBB18_4:
	.loc	16 741 9 is_stmt 1      ## /Applications/Xcode.app/Contents/Developer/Toolchains/XcodeDefault.xctoolchain/usr/bin/../include/c++/v1/fstream:741:9
	movq	-168(%rbp), %rax        ## 8-byte Reload
	testb	$1, 401(%rax)
	je	LBB18_8
## BB#5:
	.loc	16 742 19               ## /Applications/Xcode.app/Contents/Developer/Toolchains/XcodeDefault.xctoolchain/usr/bin/../include/c++/v1/fstream:742:19
Ltmp340:
	movq	-168(%rbp), %rax        ## 8-byte Reload
	movq	104(%rax), %rcx
	.loc	16 742 9 is_stmt 0      ## /Applications/Xcode.app/Contents/Developer/Toolchains/XcodeDefault.xctoolchain/usr/bin/../include/c++/v1/fstream:742:9
	cmpq	$0, %rcx
	movq	%rcx, -184(%rbp)        ## 8-byte Spill
	je	LBB18_7
## BB#6:
	movq	-184(%rbp), %rdi        ## 8-byte Reload
	callq	__ZdaPv
LBB18_7:
	jmp	LBB18_8
Ltmp341:
LBB18_8:
	.loc	16 743 14 is_stmt 1     ## /Applications/Xcode.app/Contents/Developer/Toolchains/XcodeDefault.xctoolchain/usr/bin/../include/c++/v1/fstream:743:14
	movq	-152(%rbp), %rax
	.loc	16 743 12 is_stmt 0     ## /Applications/Xcode.app/Contents/Developer/Toolchains/XcodeDefault.xctoolchain/usr/bin/../include/c++/v1/fstream:743:12
	movq	-168(%rbp), %rcx        ## 8-byte Reload
	movq	%rax, 96(%rcx)
	.loc	16 744 16 is_stmt 1     ## /Applications/Xcode.app/Contents/Developer/Toolchains/XcodeDefault.xctoolchain/usr/bin/../include/c++/v1/fstream:744:16
Ltmp342:
	cmpq	$8, 96(%rcx)
Ltmp343:
	.loc	16 744 9 is_stmt 0      ## /Applications/Xcode.app/Contents/Developer/Toolchains/XcodeDefault.xctoolchain/usr/bin/../include/c++/v1/fstream:744:9
	jbe	LBB18_14
## BB#9:
	.loc	16 746 30 is_stmt 1     ## /Applications/Xcode.app/Contents/Developer/Toolchains/XcodeDefault.xctoolchain/usr/bin/../include/c++/v1/fstream:746:30
Ltmp344:
	movq	-168(%rbp), %rax        ## 8-byte Reload
	testb	$1, 402(%rax)
	je	LBB18_12
## BB#10:
	.loc	16 746 33 is_stmt 0     ## /Applications/Xcode.app/Contents/Developer/Toolchains/XcodeDefault.xctoolchain/usr/bin/../include/c++/v1/fstream:746:33
	cmpq	$0, -144(%rbp)
Ltmp345:
	.loc	16 746 13               ## /Applications/Xcode.app/Contents/Developer/Toolchains/XcodeDefault.xctoolchain/usr/bin/../include/c++/v1/fstream:746:13
	je	LBB18_12
## BB#11:
	.loc	16 748 32 is_stmt 1     ## /Applications/Xcode.app/Contents/Developer/Toolchains/XcodeDefault.xctoolchain/usr/bin/../include/c++/v1/fstream:748:32
Ltmp346:
	movq	-144(%rbp), %rax
	.loc	16 748 23 is_stmt 0     ## /Applications/Xcode.app/Contents/Developer/Toolchains/XcodeDefault.xctoolchain/usr/bin/../include/c++/v1/fstream:748:23
	movq	-168(%rbp), %rcx        ## 8-byte Reload
	movq	%rax, 64(%rcx)
	.loc	16 749 24 is_stmt 1     ## /Applications/Xcode.app/Contents/Developer/Toolchains/XcodeDefault.xctoolchain/usr/bin/../include/c++/v1/fstream:749:24
	movb	$0, 400(%rcx)
	.loc	16 750 9                ## /Applications/Xcode.app/Contents/Developer/Toolchains/XcodeDefault.xctoolchain/usr/bin/../include/c++/v1/fstream:750:9
	jmp	LBB18_13
Ltmp347:
LBB18_12:
	.loc	16 753 34               ## /Applications/Xcode.app/Contents/Developer/Toolchains/XcodeDefault.xctoolchain/usr/bin/../include/c++/v1/fstream:753:34
	movq	-168(%rbp), %rax        ## 8-byte Reload
	movq	96(%rax), %rdi
	.loc	16 753 25 is_stmt 0     ## /Applications/Xcode.app/Contents/Developer/Toolchains/XcodeDefault.xctoolchain/usr/bin/../include/c++/v1/fstream:753:25
	callq	__Znam
	.loc	16 753 23               ## /Applications/Xcode.app/Contents/Developer/Toolchains/XcodeDefault.xctoolchain/usr/bin/../include/c++/v1/fstream:753:23
	movq	-168(%rbp), %rdi        ## 8-byte Reload
	movq	%rax, 64(%rdi)
	.loc	16 754 24 is_stmt 1     ## /Applications/Xcode.app/Contents/Developer/Toolchains/XcodeDefault.xctoolchain/usr/bin/../include/c++/v1/fstream:754:24
	movb	$1, 400(%rdi)
Ltmp348:
LBB18_13:
	.loc	16 756 5                ## /Applications/Xcode.app/Contents/Developer/Toolchains/XcodeDefault.xctoolchain/usr/bin/../include/c++/v1/fstream:756:5
	jmp	LBB18_15
Ltmp349:
LBB18_14:
	.loc	16 759 21               ## /Applications/Xcode.app/Contents/Developer/Toolchains/XcodeDefault.xctoolchain/usr/bin/../include/c++/v1/fstream:759:21
	movq	-168(%rbp), %rax        ## 8-byte Reload
	addq	$88, %rax
	.loc	16 759 19 is_stmt 0     ## /Applications/Xcode.app/Contents/Developer/Toolchains/XcodeDefault.xctoolchain/usr/bin/../include/c++/v1/fstream:759:19
	movq	-168(%rbp), %rcx        ## 8-byte Reload
	movq	%rax, 64(%rcx)
	.loc	16 760 16 is_stmt 1     ## /Applications/Xcode.app/Contents/Developer/Toolchains/XcodeDefault.xctoolchain/usr/bin/../include/c++/v1/fstream:760:16
	movq	$8, 96(%rcx)
	.loc	16 761 20               ## /Applications/Xcode.app/Contents/Developer/Toolchains/XcodeDefault.xctoolchain/usr/bin/../include/c++/v1/fstream:761:20
	movb	$0, 400(%rcx)
Ltmp350:
LBB18_15:
	.loc	16 763 9                ## /Applications/Xcode.app/Contents/Developer/Toolchains/XcodeDefault.xctoolchain/usr/bin/../include/c++/v1/fstream:763:9
	movq	-168(%rbp), %rax        ## 8-byte Reload
	testb	$1, 402(%rax)
	jne	LBB18_24
## BB#16:
	leaq	-56(%rbp), %rax
	leaq	-160(%rbp), %rcx
	leaq	-152(%rbp), %rdx
	.loc	16 765 39               ## /Applications/Xcode.app/Contents/Developer/Toolchains/XcodeDefault.xctoolchain/usr/bin/../include/c++/v1/fstream:765:39
Ltmp351:
	movq	$8, -160(%rbp)
	.loc	16 765 18 is_stmt 0     ## /Applications/Xcode.app/Contents/Developer/Toolchains/XcodeDefault.xctoolchain/usr/bin/../include/c++/v1/fstream:765:18
	movq	%rdx, -80(%rbp)
	movq	%rcx, -88(%rbp)
	.file	64 "/Applications/Xcode.app/Contents/Developer/Toolchains/XcodeDefault.xctoolchain/usr/bin/../include/c++/v1" "algorithm"
	.loc	64 2656 23 is_stmt 1    ## /Applications/Xcode.app/Contents/Developer/Toolchains/XcodeDefault.xctoolchain/usr/bin/../include/c++/v1/algorithm:2656:23
Ltmp352:
	movq	-80(%rbp), %rcx
	.loc	64 2656 28 is_stmt 0    ## /Applications/Xcode.app/Contents/Developer/Toolchains/XcodeDefault.xctoolchain/usr/bin/../include/c++/v1/algorithm:2656:28
	movq	-88(%rbp), %rdx
	.loc	64 2656 12              ## /Applications/Xcode.app/Contents/Developer/Toolchains/XcodeDefault.xctoolchain/usr/bin/../include/c++/v1/algorithm:2656:12
	movq	%rcx, -64(%rbp)
	movq	%rdx, -72(%rbp)
	.loc	64 2648 19 is_stmt 1    ## /Applications/Xcode.app/Contents/Developer/Toolchains/XcodeDefault.xctoolchain/usr/bin/../include/c++/v1/algorithm:2648:19
Ltmp353:
	movq	-64(%rbp), %rcx
	.loc	64 2648 24 is_stmt 0    ## /Applications/Xcode.app/Contents/Developer/Toolchains/XcodeDefault.xctoolchain/usr/bin/../include/c++/v1/algorithm:2648:24
	movq	-72(%rbp), %rdx
	.loc	64 2648 12              ## /Applications/Xcode.app/Contents/Developer/Toolchains/XcodeDefault.xctoolchain/usr/bin/../include/c++/v1/algorithm:2648:12
	movq	%rax, -32(%rbp)
	movq	%rcx, -40(%rbp)
	movq	%rdx, -48(%rbp)
	.loc	64 702 67 is_stmt 1     ## /Applications/Xcode.app/Contents/Developer/Toolchains/XcodeDefault.xctoolchain/usr/bin/../include/c++/v1/algorithm:702:67
Ltmp354:
	movq	-40(%rbp), %rax
	movq	(%rax), %rax
	.loc	64 702 73 is_stmt 0     ## /Applications/Xcode.app/Contents/Developer/Toolchains/XcodeDefault.xctoolchain/usr/bin/../include/c++/v1/algorithm:702:73
	movq	-48(%rbp), %rcx
	.loc	64 702 71               ## /Applications/Xcode.app/Contents/Developer/Toolchains/XcodeDefault.xctoolchain/usr/bin/../include/c++/v1/algorithm:702:71
	cmpq	(%rcx), %rax
Ltmp355:
	.loc	64 2648 12 is_stmt 1    ## /Applications/Xcode.app/Contents/Developer/Toolchains/XcodeDefault.xctoolchain/usr/bin/../include/c++/v1/algorithm:2648:12
	jge	LBB18_18
## BB#17:
	.loc	64 2648 31 is_stmt 0    ## /Applications/Xcode.app/Contents/Developer/Toolchains/XcodeDefault.xctoolchain/usr/bin/../include/c++/v1/algorithm:2648:31
	movq	-72(%rbp), %rax
	.loc	64 2648 12              ## /Applications/Xcode.app/Contents/Developer/Toolchains/XcodeDefault.xctoolchain/usr/bin/../include/c++/v1/algorithm:2648:12
	movq	%rax, -192(%rbp)        ## 8-byte Spill
	jmp	LBB18_19
LBB18_18:
	.loc	64 2648 37              ## /Applications/Xcode.app/Contents/Developer/Toolchains/XcodeDefault.xctoolchain/usr/bin/../include/c++/v1/algorithm:2648:37
	movq	-64(%rbp), %rax
	movq	%rax, -192(%rbp)        ## 8-byte Spill
LBB18_19:
	.loc	64 2648 12              ## /Applications/Xcode.app/Contents/Developer/Toolchains/XcodeDefault.xctoolchain/usr/bin/../include/c++/v1/algorithm:2648:12
	movq	-192(%rbp), %rax        ## 8-byte Reload
Ltmp356:
	.loc	16 765 18 is_stmt 1     ## /Applications/Xcode.app/Contents/Developer/Toolchains/XcodeDefault.xctoolchain/usr/bin/../include/c++/v1/fstream:765:18
	movq	(%rax), %rax
	.loc	16 765 16 is_stmt 0     ## /Applications/Xcode.app/Contents/Developer/Toolchains/XcodeDefault.xctoolchain/usr/bin/../include/c++/v1/fstream:765:16
	movq	-168(%rbp), %rcx        ## 8-byte Reload
	movq	%rax, 112(%rcx)
	.loc	16 766 13 is_stmt 1     ## /Applications/Xcode.app/Contents/Developer/Toolchains/XcodeDefault.xctoolchain/usr/bin/../include/c++/v1/fstream:766:13
Ltmp357:
	cmpq	$0, -144(%rbp)
	.loc	16 766 17 is_stmt 0     ## /Applications/Xcode.app/Contents/Developer/Toolchains/XcodeDefault.xctoolchain/usr/bin/../include/c++/v1/fstream:766:17
	je	LBB18_22
## BB#20:
	.loc	16 766 27               ## /Applications/Xcode.app/Contents/Developer/Toolchains/XcodeDefault.xctoolchain/usr/bin/../include/c++/v1/fstream:766:27
	movq	-168(%rbp), %rax        ## 8-byte Reload
	cmpq	$8, 112(%rax)
Ltmp358:
	.loc	16 766 13               ## /Applications/Xcode.app/Contents/Developer/Toolchains/XcodeDefault.xctoolchain/usr/bin/../include/c++/v1/fstream:766:13
	jb	LBB18_22
## BB#21:
	.loc	16 768 25 is_stmt 1     ## /Applications/Xcode.app/Contents/Developer/Toolchains/XcodeDefault.xctoolchain/usr/bin/../include/c++/v1/fstream:768:25
Ltmp359:
	movq	-144(%rbp), %rax
	.loc	16 768 23 is_stmt 0     ## /Applications/Xcode.app/Contents/Developer/Toolchains/XcodeDefault.xctoolchain/usr/bin/../include/c++/v1/fstream:768:23
	movq	-168(%rbp), %rcx        ## 8-byte Reload
	movq	%rax, 104(%rcx)
	.loc	16 769 24 is_stmt 1     ## /Applications/Xcode.app/Contents/Developer/Toolchains/XcodeDefault.xctoolchain/usr/bin/../include/c++/v1/fstream:769:24
	movb	$0, 401(%rcx)
	.loc	16 770 9                ## /Applications/Xcode.app/Contents/Developer/Toolchains/XcodeDefault.xctoolchain/usr/bin/../include/c++/v1/fstream:770:9
	jmp	LBB18_23
Ltmp360:
LBB18_22:
	.loc	16 773 39               ## /Applications/Xcode.app/Contents/Developer/Toolchains/XcodeDefault.xctoolchain/usr/bin/../include/c++/v1/fstream:773:39
	movq	-168(%rbp), %rax        ## 8-byte Reload
	movq	112(%rax), %rdi
	.loc	16 773 25 is_stmt 0     ## /Applications/Xcode.app/Contents/Developer/Toolchains/XcodeDefault.xctoolchain/usr/bin/../include/c++/v1/fstream:773:25
	callq	__Znam
	.loc	16 773 23               ## /Applications/Xcode.app/Contents/Developer/Toolchains/XcodeDefault.xctoolchain/usr/bin/../include/c++/v1/fstream:773:23
	movq	-168(%rbp), %rdi        ## 8-byte Reload
	movq	%rax, 104(%rdi)
	.loc	16 774 24 is_stmt 1     ## /Applications/Xcode.app/Contents/Developer/Toolchains/XcodeDefault.xctoolchain/usr/bin/../include/c++/v1/fstream:774:24
	movb	$1, 401(%rdi)
Ltmp361:
LBB18_23:
	.loc	16 776 5                ## /Applications/Xcode.app/Contents/Developer/Toolchains/XcodeDefault.xctoolchain/usr/bin/../include/c++/v1/fstream:776:5
	jmp	LBB18_25
Ltmp362:
LBB18_24:
	.loc	16 779 16               ## /Applications/Xcode.app/Contents/Developer/Toolchains/XcodeDefault.xctoolchain/usr/bin/../include/c++/v1/fstream:779:16
	movq	-168(%rbp), %rax        ## 8-byte Reload
	movq	$0, 112(%rax)
	.loc	16 780 19               ## /Applications/Xcode.app/Contents/Developer/Toolchains/XcodeDefault.xctoolchain/usr/bin/../include/c++/v1/fstream:780:19
	movq	$0, 104(%rax)
	.loc	16 781 20               ## /Applications/Xcode.app/Contents/Developer/Toolchains/XcodeDefault.xctoolchain/usr/bin/../include/c++/v1/fstream:781:20
	movb	$0, 401(%rax)
Ltmp363:
LBB18_25:
	.loc	16 783 12               ## /Applications/Xcode.app/Contents/Developer/Toolchains/XcodeDefault.xctoolchain/usr/bin/../include/c++/v1/fstream:783:12
	movq	-168(%rbp), %rax        ## 8-byte Reload
	.loc	16 783 5 is_stmt 0      ## /Applications/Xcode.app/Contents/Developer/Toolchains/XcodeDefault.xctoolchain/usr/bin/../include/c++/v1/fstream:783:5
	addq	$192, %rsp
	popq	%rbp
	retq
Ltmp364:
Lfunc_end18:
	.cfi_endproc

	.globl	__ZNSt3__113basic_filebufIcNS_11char_traitsIcEEE7seekoffExNS_8ios_base7seekdirEj
	.weak_def_can_be_hidden	__ZNSt3__113basic_filebufIcNS_11char_traitsIcEEE7seekoffExNS_8ios_base7seekdirEj
	.align	4, 0x90
__ZNSt3__113basic_filebufIcNS_11char_traitsIcEEE7seekoffExNS_8ios_base7seekdirEj: ## @_ZNSt3__113basic_filebufIcNS_11char_traitsIcEEE7seekoffExNS_8ios_base7seekdirEj
Lfunc_begin19:
	.loc	16 790 0 is_stmt 1      ## /Applications/Xcode.app/Contents/Developer/Toolchains/XcodeDefault.xctoolchain/usr/bin/../include/c++/v1/fstream:790:0
	.cfi_startproc
## BB#0:
	pushq	%rbp
Ltmp365:
	.cfi_def_cfa_offset 16
Ltmp366:
	.cfi_offset %rbp, -16
	movq	%rsp, %rbp
Ltmp367:
	.cfi_def_cfa_register %rbp
	subq	$720, %rsp              ## imm = 0x2D0
	movq	%rdi, %rax
	movq	___stack_chk_guard@GOTPCREL(%rip), %r9
	movq	(%r9), %r9
	movq	%r9, -8(%rbp)
	movq	%rsi, -552(%rbp)
	movq	%rdx, -560(%rbp)
	movl	%ecx, -564(%rbp)
	movl	%r8d, -568(%rbp)
	movq	-552(%rbp), %rdx
	.loc	16 792 10 prologue_end  ## /Applications/Xcode.app/Contents/Developer/Toolchains/XcodeDefault.xctoolchain/usr/bin/../include/c++/v1/fstream:792:10
Ltmp368:
	cmpq	$0, 128(%rdx)
Ltmp369:
	.loc	16 792 9 is_stmt 0      ## /Applications/Xcode.app/Contents/Developer/Toolchains/XcodeDefault.xctoolchain/usr/bin/../include/c++/v1/fstream:792:9
	movq	%rax, -584(%rbp)        ## 8-byte Spill
	movq	%rdi, -592(%rbp)        ## 8-byte Spill
	movq	%rdx, -600(%rbp)        ## 8-byte Spill
	jne	LBB19_2
## BB#1:
	movl	$8, %eax
	movl	%eax, %edi
	.loc	16 793 9 is_stmt 1      ## /Applications/Xcode.app/Contents/Developer/Toolchains/XcodeDefault.xctoolchain/usr/bin/../include/c++/v1/fstream:793:9
Ltmp370:
	callq	___cxa_allocate_exception
	movq	%rax, %rdi
	.loc	16 793 15 is_stmt 0     ## /Applications/Xcode.app/Contents/Developer/Toolchains/XcodeDefault.xctoolchain/usr/bin/../include/c++/v1/fstream:793:15
	movq	%rax, -608(%rbp)        ## 8-byte Spill
	callq	__ZNSt8bad_castC1Ev
	movq	__ZTISt8bad_cast@GOTPCREL(%rip), %rax
	movq	__ZNSt8bad_castD1Ev@GOTPCREL(%rip), %rdi
	.loc	16 793 9                ## /Applications/Xcode.app/Contents/Developer/Toolchains/XcodeDefault.xctoolchain/usr/bin/../include/c++/v1/fstream:793:9
	movq	-608(%rbp), %rcx        ## 8-byte Reload
	movq	%rdi, -616(%rbp)        ## 8-byte Spill
	movq	%rcx, %rdi
	movq	%rax, %rsi
	movq	-616(%rbp), %rdx        ## 8-byte Reload
	callq	___cxa_throw
Ltmp371:
LBB19_2:
	.loc	16 795 19 is_stmt 1     ## /Applications/Xcode.app/Contents/Developer/Toolchains/XcodeDefault.xctoolchain/usr/bin/../include/c++/v1/fstream:795:19
	movq	-600(%rbp), %rax        ## 8-byte Reload
	movq	128(%rax), %rcx
	movq	%rcx, -544(%rbp)
	movq	-544(%rbp), %rcx
	.loc	7 861 16                ## /Applications/Xcode.app/Contents/Developer/Toolchains/XcodeDefault.xctoolchain/usr/bin/../include/c++/v1/__locale:861:16
Ltmp372:
	movq	(%rcx), %rdx
	movq	%rcx, %rdi
	callq	*48(%rdx)
Ltmp373:
	.loc	16 795 9                ## /Applications/Xcode.app/Contents/Developer/Toolchains/XcodeDefault.xctoolchain/usr/bin/../include/c++/v1/fstream:795:9
	movl	%eax, -572(%rbp)
	.loc	16 796 17               ## /Applications/Xcode.app/Contents/Developer/Toolchains/XcodeDefault.xctoolchain/usr/bin/../include/c++/v1/fstream:796:17
Ltmp374:
	movq	-600(%rbp), %rcx        ## 8-byte Reload
	cmpq	$0, 120(%rcx)
	.loc	16 796 22 is_stmt 0     ## /Applications/Xcode.app/Contents/Developer/Toolchains/XcodeDefault.xctoolchain/usr/bin/../include/c++/v1/fstream:796:22
	je	LBB19_6
## BB#3:
	.loc	16 796 34               ## /Applications/Xcode.app/Contents/Developer/Toolchains/XcodeDefault.xctoolchain/usr/bin/../include/c++/v1/fstream:796:34
	cmpl	$0, -572(%rbp)
	.loc	16 796 39               ## /Applications/Xcode.app/Contents/Developer/Toolchains/XcodeDefault.xctoolchain/usr/bin/../include/c++/v1/fstream:796:39
	jg	LBB19_5
## BB#4:
	.loc	16 796 48               ## /Applications/Xcode.app/Contents/Developer/Toolchains/XcodeDefault.xctoolchain/usr/bin/../include/c++/v1/fstream:796:48
	cmpq	$0, -560(%rbp)
	.loc	16 796 54               ## /Applications/Xcode.app/Contents/Developer/Toolchains/XcodeDefault.xctoolchain/usr/bin/../include/c++/v1/fstream:796:54
	jne	LBB19_6
LBB19_5:
	.loc	16 796 57               ## /Applications/Xcode.app/Contents/Developer/Toolchains/XcodeDefault.xctoolchain/usr/bin/../include/c++/v1/fstream:796:57
	movq	-600(%rbp), %rax        ## 8-byte Reload
	movq	(%rax), %rcx
	movq	%rax, %rdi
	callq	*48(%rcx)
	cmpl	$0, %eax
Ltmp375:
	.loc	16 796 9                ## /Applications/Xcode.app/Contents/Developer/Toolchains/XcodeDefault.xctoolchain/usr/bin/../include/c++/v1/fstream:796:9
	je	LBB19_7
LBB19_6:
	xorl	%esi, %esi
	movl	$128, %eax
	movl	%eax, %edx
	.loc	16 797 16 is_stmt 1     ## /Applications/Xcode.app/Contents/Developer/Toolchains/XcodeDefault.xctoolchain/usr/bin/../include/c++/v1/fstream:797:16
Ltmp376:
	movq	-592(%rbp), %rcx        ## 8-byte Reload
	movq	%rcx, -528(%rbp)
	movq	$-1, -536(%rbp)
	movq	-528(%rbp), %rdi
	.loc	8 473 92                ## /Applications/Xcode.app/Contents/Developer/Toolchains/XcodeDefault.xctoolchain/usr/bin/../include/c++/v1/string:473:92
Ltmp377:
	movq	-536(%rbp), %r8
	movq	%rdi, -512(%rbp)
	movq	%r8, -520(%rbp)
	movq	-512(%rbp), %rdi
	.loc	8 473 69 is_stmt 0      ## /Applications/Xcode.app/Contents/Developer/Toolchains/XcodeDefault.xctoolchain/usr/bin/../include/c++/v1/string:473:69
Ltmp378:
	movq	%rdi, %r8
	movq	%rdi, -624(%rbp)        ## 8-byte Spill
	movq	%r8, %rdi
	callq	_memset
	.loc	8 473 85                ## /Applications/Xcode.app/Contents/Developer/Toolchains/XcodeDefault.xctoolchain/usr/bin/../include/c++/v1/string:473:85
	movq	-520(%rbp), %rcx
	.loc	8 473 78                ## /Applications/Xcode.app/Contents/Developer/Toolchains/XcodeDefault.xctoolchain/usr/bin/../include/c++/v1/string:473:78
	movq	-624(%rbp), %rdx        ## 8-byte Reload
	movq	%rcx, 128(%rdx)
Ltmp379:
	.loc	16 797 9 is_stmt 1      ## /Applications/Xcode.app/Contents/Developer/Toolchains/XcodeDefault.xctoolchain/usr/bin/../include/c++/v1/fstream:797:9
	jmp	LBB19_18
Ltmp380:
LBB19_7:
	##DEBUG_VALUE: seekoff:__whence <- [%RBP+-576]
	.loc	16 800 13               ## /Applications/Xcode.app/Contents/Developer/Toolchains/XcodeDefault.xctoolchain/usr/bin/../include/c++/v1/fstream:800:13
	movl	-564(%rbp), %eax
	.loc	16 800 5 is_stmt 0      ## /Applications/Xcode.app/Contents/Developer/Toolchains/XcodeDefault.xctoolchain/usr/bin/../include/c++/v1/fstream:800:5
	testl	%eax, %eax
	movl	%eax, -628(%rbp)        ## 4-byte Spill
	je	LBB19_8
	jmp	LBB19_21
LBB19_21:
	##DEBUG_VALUE: seekoff:__whence <- [%RBP+-576]
	movl	-628(%rbp), %eax        ## 4-byte Reload
	subl	$1, %eax
	movl	%eax, -632(%rbp)        ## 4-byte Spill
	je	LBB19_9
	jmp	LBB19_22
LBB19_22:
	##DEBUG_VALUE: seekoff:__whence <- [%RBP+-576]
	movl	-628(%rbp), %eax        ## 4-byte Reload
	subl	$2, %eax
	movl	%eax, -636(%rbp)        ## 4-byte Spill
	je	LBB19_10
	jmp	LBB19_11
LBB19_8:
	##DEBUG_VALUE: seekoff:__whence <- [%RBP+-576]
	.loc	16 803 18 is_stmt 1     ## /Applications/Xcode.app/Contents/Developer/Toolchains/XcodeDefault.xctoolchain/usr/bin/../include/c++/v1/fstream:803:18
Ltmp381:
	movl	$0, -576(%rbp)
	.loc	16 804 9                ## /Applications/Xcode.app/Contents/Developer/Toolchains/XcodeDefault.xctoolchain/usr/bin/../include/c++/v1/fstream:804:9
	jmp	LBB19_12
LBB19_9:
	##DEBUG_VALUE: seekoff:__whence <- [%RBP+-576]
	.loc	16 806 18               ## /Applications/Xcode.app/Contents/Developer/Toolchains/XcodeDefault.xctoolchain/usr/bin/../include/c++/v1/fstream:806:18
	movl	$1, -576(%rbp)
	.loc	16 807 9                ## /Applications/Xcode.app/Contents/Developer/Toolchains/XcodeDefault.xctoolchain/usr/bin/../include/c++/v1/fstream:807:9
	jmp	LBB19_12
LBB19_10:
	##DEBUG_VALUE: seekoff:__whence <- [%RBP+-576]
	.loc	16 809 18               ## /Applications/Xcode.app/Contents/Developer/Toolchains/XcodeDefault.xctoolchain/usr/bin/../include/c++/v1/fstream:809:18
	movl	$2, -576(%rbp)
	.loc	16 810 9                ## /Applications/Xcode.app/Contents/Developer/Toolchains/XcodeDefault.xctoolchain/usr/bin/../include/c++/v1/fstream:810:9
	jmp	LBB19_12
LBB19_11:
	##DEBUG_VALUE: seekoff:__whence <- [%RBP+-576]
	xorl	%esi, %esi
	movl	$128, %eax
	movl	%eax, %edx
	.loc	16 812 16               ## /Applications/Xcode.app/Contents/Developer/Toolchains/XcodeDefault.xctoolchain/usr/bin/../include/c++/v1/fstream:812:16
	movq	-592(%rbp), %rcx        ## 8-byte Reload
	movq	%rcx, -424(%rbp)
	movq	$-1, -432(%rbp)
	movq	-424(%rbp), %rdi
	.loc	8 473 92                ## /Applications/Xcode.app/Contents/Developer/Toolchains/XcodeDefault.xctoolchain/usr/bin/../include/c++/v1/string:473:92
Ltmp382:
	movq	-432(%rbp), %r8
	movq	%rdi, -408(%rbp)
	movq	%r8, -416(%rbp)
	movq	-408(%rbp), %rdi
	.loc	8 473 69 is_stmt 0      ## /Applications/Xcode.app/Contents/Developer/Toolchains/XcodeDefault.xctoolchain/usr/bin/../include/c++/v1/string:473:69
Ltmp383:
	movq	%rdi, %r8
	movq	%rdi, -648(%rbp)        ## 8-byte Spill
	movq	%r8, %rdi
	callq	_memset
	.loc	8 473 85                ## /Applications/Xcode.app/Contents/Developer/Toolchains/XcodeDefault.xctoolchain/usr/bin/../include/c++/v1/string:473:85
	movq	-416(%rbp), %rcx
	.loc	8 473 78                ## /Applications/Xcode.app/Contents/Developer/Toolchains/XcodeDefault.xctoolchain/usr/bin/../include/c++/v1/string:473:78
	movq	-648(%rbp), %rdx        ## 8-byte Reload
	movq	%rcx, 128(%rdx)
Ltmp384:
	.loc	16 812 9 is_stmt 1      ## /Applications/Xcode.app/Contents/Developer/Toolchains/XcodeDefault.xctoolchain/usr/bin/../include/c++/v1/fstream:812:9
	jmp	LBB19_18
Ltmp385:
LBB19_12:
	##DEBUG_VALUE: seekoff:__whence <- [%RBP+-576]
	.loc	16 819 16               ## /Applications/Xcode.app/Contents/Developer/Toolchains/XcodeDefault.xctoolchain/usr/bin/../include/c++/v1/fstream:819:16
	movq	-600(%rbp), %rax        ## 8-byte Reload
	movq	120(%rax), %rdi
	.loc	16 819 33 is_stmt 0     ## /Applications/Xcode.app/Contents/Developer/Toolchains/XcodeDefault.xctoolchain/usr/bin/../include/c++/v1/fstream:819:33
	cmpl	$0, -572(%rbp)
	.loc	16 819 25               ## /Applications/Xcode.app/Contents/Developer/Toolchains/XcodeDefault.xctoolchain/usr/bin/../include/c++/v1/fstream:819:25
	movq	%rdi, -656(%rbp)        ## 8-byte Spill
	jle	LBB19_14
## BB#13:
	##DEBUG_VALUE: seekoff:__whence <- [%RBP+-576]
	.loc	16 819 39               ## /Applications/Xcode.app/Contents/Developer/Toolchains/XcodeDefault.xctoolchain/usr/bin/../include/c++/v1/fstream:819:39
	movslq	-572(%rbp), %rax
	.loc	16 819 47               ## /Applications/Xcode.app/Contents/Developer/Toolchains/XcodeDefault.xctoolchain/usr/bin/../include/c++/v1/fstream:819:47
	imulq	-560(%rbp), %rax
	.loc	16 819 25               ## /Applications/Xcode.app/Contents/Developer/Toolchains/XcodeDefault.xctoolchain/usr/bin/../include/c++/v1/fstream:819:25
	movq	%rax, -664(%rbp)        ## 8-byte Spill
	jmp	LBB19_15
LBB19_14:
	##DEBUG_VALUE: seekoff:__whence <- [%RBP+-576]
	xorl	%eax, %eax
	movl	%eax, %ecx
	movq	%rcx, -664(%rbp)        ## 8-byte Spill
	jmp	LBB19_15
LBB19_15:
	##DEBUG_VALUE: seekoff:__whence <- [%RBP+-576]
	movq	-664(%rbp), %rax        ## 8-byte Reload
	.loc	16 819 60               ## /Applications/Xcode.app/Contents/Developer/Toolchains/XcodeDefault.xctoolchain/usr/bin/../include/c++/v1/fstream:819:60
	movl	-576(%rbp), %edx
	.loc	16 819 9                ## /Applications/Xcode.app/Contents/Developer/Toolchains/XcodeDefault.xctoolchain/usr/bin/../include/c++/v1/fstream:819:9
	movq	-656(%rbp), %rdi        ## 8-byte Reload
	movq	%rax, %rsi
	callq	_fseeko
	cmpl	$0, %eax
Ltmp386:
	.loc	16 819 9                ## /Applications/Xcode.app/Contents/Developer/Toolchains/XcodeDefault.xctoolchain/usr/bin/../include/c++/v1/fstream:819:9
	je	LBB19_17
## BB#16:
	##DEBUG_VALUE: seekoff:__whence <- [%RBP+-576]
	xorl	%esi, %esi
	movl	$128, %eax
	movl	%eax, %edx
	.loc	16 820 16 is_stmt 1     ## /Applications/Xcode.app/Contents/Developer/Toolchains/XcodeDefault.xctoolchain/usr/bin/../include/c++/v1/fstream:820:16
Ltmp387:
	movq	-592(%rbp), %rcx        ## 8-byte Reload
	movq	%rcx, -456(%rbp)
	movq	$-1, -464(%rbp)
	movq	-456(%rbp), %rdi
	.loc	8 473 92                ## /Applications/Xcode.app/Contents/Developer/Toolchains/XcodeDefault.xctoolchain/usr/bin/../include/c++/v1/string:473:92
Ltmp388:
	movq	-464(%rbp), %r8
	movq	%rdi, -440(%rbp)
	movq	%r8, -448(%rbp)
	movq	-440(%rbp), %rdi
	.loc	8 473 69 is_stmt 0      ## /Applications/Xcode.app/Contents/Developer/Toolchains/XcodeDefault.xctoolchain/usr/bin/../include/c++/v1/string:473:69
Ltmp389:
	movq	%rdi, %r8
	movq	%rdi, -672(%rbp)        ## 8-byte Spill
	movq	%r8, %rdi
	callq	_memset
	.loc	8 473 85                ## /Applications/Xcode.app/Contents/Developer/Toolchains/XcodeDefault.xctoolchain/usr/bin/../include/c++/v1/string:473:85
	movq	-448(%rbp), %rcx
	.loc	8 473 78                ## /Applications/Xcode.app/Contents/Developer/Toolchains/XcodeDefault.xctoolchain/usr/bin/../include/c++/v1/string:473:78
	movq	-672(%rbp), %rdx        ## 8-byte Reload
	movq	%rcx, 128(%rdx)
Ltmp390:
	.loc	16 820 9 is_stmt 1      ## /Applications/Xcode.app/Contents/Developer/Toolchains/XcodeDefault.xctoolchain/usr/bin/../include/c++/v1/fstream:820:9
	jmp	LBB19_18
Ltmp391:
LBB19_17:
	##DEBUG_VALUE: seekoff:__whence <- [%RBP+-576]
	.loc	16 821 27               ## /Applications/Xcode.app/Contents/Developer/Toolchains/XcodeDefault.xctoolchain/usr/bin/../include/c++/v1/fstream:821:27
	movq	-600(%rbp), %rax        ## 8-byte Reload
	movq	120(%rax), %rdi
	.loc	16 821 20 is_stmt 0     ## /Applications/Xcode.app/Contents/Developer/Toolchains/XcodeDefault.xctoolchain/usr/bin/../include/c++/v1/fstream:821:20
	callq	_ftello
	movl	$136, %ecx
	movl	%ecx, %edx
	leaq	-272(%rbp), %rdi
	movl	$128, %ecx
	movl	%ecx, %esi
	leaq	-136(%rbp), %r8
	leaq	-400(%rbp), %r9
	xorl	%ecx, %ecx
	movq	%rdi, -488(%rbp)
	movq	%rax, -496(%rbp)
	movq	-488(%rbp), %rax
	.loc	8 473 92 is_stmt 1      ## /Applications/Xcode.app/Contents/Developer/Toolchains/XcodeDefault.xctoolchain/usr/bin/../include/c++/v1/string:473:92
Ltmp392:
	movq	-496(%rbp), %r10
	movq	%rax, -472(%rbp)
	movq	%r10, -480(%rbp)
	movq	-472(%rbp), %rax
	.loc	8 473 69 is_stmt 0      ## /Applications/Xcode.app/Contents/Developer/Toolchains/XcodeDefault.xctoolchain/usr/bin/../include/c++/v1/string:473:69
Ltmp393:
	movq	%rax, %r10
	movq	%rdi, -680(%rbp)        ## 8-byte Spill
	movq	%r10, %rdi
	movq	%rsi, -688(%rbp)        ## 8-byte Spill
	movl	%ecx, %esi
	movq	-688(%rbp), %r10        ## 8-byte Reload
	movq	%rdx, -696(%rbp)        ## 8-byte Spill
	movq	%r10, %rdx
	movq	%r9, -704(%rbp)         ## 8-byte Spill
	movq	%rax, -712(%rbp)        ## 8-byte Spill
	movq	%r8, -720(%rbp)         ## 8-byte Spill
	callq	_memset
	.loc	8 473 85                ## /Applications/Xcode.app/Contents/Developer/Toolchains/XcodeDefault.xctoolchain/usr/bin/../include/c++/v1/string:473:85
	movq	-480(%rbp), %rax
	.loc	8 473 78                ## /Applications/Xcode.app/Contents/Developer/Toolchains/XcodeDefault.xctoolchain/usr/bin/../include/c++/v1/string:473:78
	movq	-712(%rbp), %rdx        ## 8-byte Reload
	movq	%rax, 128(%rdx)
Ltmp394:
	.loc	16 823 15 is_stmt 1     ## /Applications/Xcode.app/Contents/Developer/Toolchains/XcodeDefault.xctoolchain/usr/bin/../include/c++/v1/fstream:823:15
	movq	-600(%rbp), %rax        ## 8-byte Reload
	addq	$136, %rax
	movq	-704(%rbp), %rdi        ## 8-byte Reload
	movq	%rax, %rsi
	movq	-688(%rbp), %rdx        ## 8-byte Reload
	callq	_memcpy
	.loc	16 823 5 is_stmt 0      ## /Applications/Xcode.app/Contents/Developer/Toolchains/XcodeDefault.xctoolchain/usr/bin/../include/c++/v1/fstream:823:5
	movq	-720(%rbp), %rax        ## 8-byte Reload
	movq	-704(%rbp), %rdx        ## 8-byte Reload
	movq	%rax, %rdi
	movq	%rdx, %rsi
	movq	-688(%rbp), %rdx        ## 8-byte Reload
	callq	_memcpy
	movq	-680(%rbp), %rax        ## 8-byte Reload
	movq	%rax, -504(%rbp)
	movq	-504(%rbp), %rdx
	.loc	8 478 63 is_stmt 1      ## /Applications/Xcode.app/Contents/Developer/Toolchains/XcodeDefault.xctoolchain/usr/bin/../include/c++/v1/string:478:63
Ltmp395:
	movq	-720(%rbp), %rsi        ## 8-byte Reload
	movq	%rdx, %rdi
	movq	-688(%rbp), %rdx        ## 8-byte Reload
	callq	_memcpy
Ltmp396:
	.loc	16 824 12               ## /Applications/Xcode.app/Contents/Developer/Toolchains/XcodeDefault.xctoolchain/usr/bin/../include/c++/v1/fstream:824:12
	movq	-592(%rbp), %rax        ## 8-byte Reload
	movq	-680(%rbp), %rdx        ## 8-byte Reload
	movq	%rax, %rdi
	movq	%rdx, %rsi
	movq	-696(%rbp), %rdx        ## 8-byte Reload
	callq	_memcpy
LBB19_18:
	movq	___stack_chk_guard@GOTPCREL(%rip), %rax
	movq	(%rax), %rax
	cmpq	-8(%rbp), %rax
	jne	LBB19_20
## BB#19:
	.loc	16 825 1                ## /Applications/Xcode.app/Contents/Developer/Toolchains/XcodeDefault.xctoolchain/usr/bin/../include/c++/v1/fstream:825:1
	movq	-584(%rbp), %rax        ## 8-byte Reload
	addq	$720, %rsp              ## imm = 0x2D0
	popq	%rbp
	retq
Ltmp397:
LBB19_20:
	callq	___stack_chk_fail
Lfunc_end19:
	.cfi_endproc

	.globl	__ZNSt3__113basic_filebufIcNS_11char_traitsIcEEE7seekposENS_4fposI11__mbstate_tEEj
	.weak_def_can_be_hidden	__ZNSt3__113basic_filebufIcNS_11char_traitsIcEEE7seekposENS_4fposI11__mbstate_tEEj
	.align	4, 0x90
__ZNSt3__113basic_filebufIcNS_11char_traitsIcEEE7seekposENS_4fposI11__mbstate_tEEj: ## @_ZNSt3__113basic_filebufIcNS_11char_traitsIcEEE7seekposENS_4fposI11__mbstate_tEEj
Lfunc_begin20:
	.loc	16 830 0                ## /Applications/Xcode.app/Contents/Developer/Toolchains/XcodeDefault.xctoolchain/usr/bin/../include/c++/v1/fstream:830:0
	.cfi_startproc
## BB#0:
	pushq	%rbp
Ltmp398:
	.cfi_def_cfa_offset 16
Ltmp399:
	.cfi_offset %rbp, -16
	movq	%rsp, %rbp
Ltmp400:
	.cfi_def_cfa_register %rbp
	subq	$320, %rsp              ## imm = 0x140
	movq	%rdi, %rax
	leaq	16(%rbp), %rcx
	movq	___stack_chk_guard@GOTPCREL(%rip), %r8
	movq	(%r8), %r8
	movq	%r8, -8(%rbp)
	movq	%rsi, -224(%rbp)
	##DEBUG_VALUE: seekpos:__sp <- [%RBP+16]
	movl	%edx, -228(%rbp)
	movq	-224(%rbp), %rsi
	.loc	16 831 17 prologue_end  ## /Applications/Xcode.app/Contents/Developer/Toolchains/XcodeDefault.xctoolchain/usr/bin/../include/c++/v1/fstream:831:17
Ltmp401:
	cmpq	$0, 120(%rsi)
	.loc	16 831 22 is_stmt 0     ## /Applications/Xcode.app/Contents/Developer/Toolchains/XcodeDefault.xctoolchain/usr/bin/../include/c++/v1/fstream:831:22
	movq	%rax, -240(%rbp)        ## 8-byte Spill
	movq	%rcx, -248(%rbp)        ## 8-byte Spill
	movq	%rdi, -256(%rbp)        ## 8-byte Spill
	movq	%rsi, -264(%rbp)        ## 8-byte Spill
	je	LBB20_2
## BB#1:
	##DEBUG_VALUE: seekpos:__sp <- [%RBP+16]
	.loc	16 831 25               ## /Applications/Xcode.app/Contents/Developer/Toolchains/XcodeDefault.xctoolchain/usr/bin/../include/c++/v1/fstream:831:25
	movq	-264(%rbp), %rax        ## 8-byte Reload
	movq	(%rax), %rcx
	movq	%rax, %rdi
	callq	*48(%rcx)
	cmpl	$0, %eax
Ltmp402:
	.loc	16 831 9                ## /Applications/Xcode.app/Contents/Developer/Toolchains/XcodeDefault.xctoolchain/usr/bin/../include/c++/v1/fstream:831:9
	je	LBB20_3
LBB20_2:
	##DEBUG_VALUE: seekpos:__sp <- [%RBP+16]
	xorl	%esi, %esi
	movl	$128, %eax
	movl	%eax, %edx
	.loc	16 832 16 is_stmt 1     ## /Applications/Xcode.app/Contents/Developer/Toolchains/XcodeDefault.xctoolchain/usr/bin/../include/c++/v1/fstream:832:16
Ltmp403:
	movq	-256(%rbp), %rcx        ## 8-byte Reload
	movq	%rcx, -208(%rbp)
	movq	$-1, -216(%rbp)
	movq	-208(%rbp), %rdi
	.loc	8 473 92                ## /Applications/Xcode.app/Contents/Developer/Toolchains/XcodeDefault.xctoolchain/usr/bin/../include/c++/v1/string:473:92
Ltmp404:
	movq	-216(%rbp), %r8
	movq	%rdi, -192(%rbp)
	movq	%r8, -200(%rbp)
	movq	-192(%rbp), %rdi
	.loc	8 473 69 is_stmt 0      ## /Applications/Xcode.app/Contents/Developer/Toolchains/XcodeDefault.xctoolchain/usr/bin/../include/c++/v1/string:473:69
Ltmp405:
	movq	%rdi, %r8
	movq	%rdi, -272(%rbp)        ## 8-byte Spill
	movq	%r8, %rdi
	callq	_memset
	.loc	8 473 85                ## /Applications/Xcode.app/Contents/Developer/Toolchains/XcodeDefault.xctoolchain/usr/bin/../include/c++/v1/string:473:85
	movq	-200(%rbp), %rcx
	.loc	8 473 78                ## /Applications/Xcode.app/Contents/Developer/Toolchains/XcodeDefault.xctoolchain/usr/bin/../include/c++/v1/string:473:78
	movq	-272(%rbp), %rdx        ## 8-byte Reload
	movq	%rcx, 128(%rdx)
Ltmp406:
	.loc	16 832 9 is_stmt 1      ## /Applications/Xcode.app/Contents/Developer/Toolchains/XcodeDefault.xctoolchain/usr/bin/../include/c++/v1/fstream:832:9
	jmp	LBB20_6
Ltmp407:
LBB20_3:
	##DEBUG_VALUE: seekpos:__sp <- [%RBP+16]
	xorl	%edx, %edx
	.loc	16 837 16               ## /Applications/Xcode.app/Contents/Developer/Toolchains/XcodeDefault.xctoolchain/usr/bin/../include/c++/v1/fstream:837:16
Ltmp408:
	movq	-264(%rbp), %rax        ## 8-byte Reload
	movq	120(%rax), %rdi
	.loc	16 837 25 is_stmt 0     ## /Applications/Xcode.app/Contents/Developer/Toolchains/XcodeDefault.xctoolchain/usr/bin/../include/c++/v1/fstream:837:25
	movq	-248(%rbp), %rcx        ## 8-byte Reload
	movq	%rcx, -144(%rbp)
	movq	-144(%rbp), %rsi
	.loc	8 475 66 is_stmt 1      ## /Applications/Xcode.app/Contents/Developer/Toolchains/XcodeDefault.xctoolchain/usr/bin/../include/c++/v1/string:475:66
Ltmp409:
	movq	128(%rsi), %rsi
Ltmp410:
	.loc	16 837 9                ## /Applications/Xcode.app/Contents/Developer/Toolchains/XcodeDefault.xctoolchain/usr/bin/../include/c++/v1/fstream:837:9
	callq	_fseeko
	cmpl	$0, %eax
Ltmp411:
	.loc	16 837 9 is_stmt 0      ## /Applications/Xcode.app/Contents/Developer/Toolchains/XcodeDefault.xctoolchain/usr/bin/../include/c++/v1/fstream:837:9
	je	LBB20_5
## BB#4:
	##DEBUG_VALUE: seekpos:__sp <- [%RBP+16]
	xorl	%esi, %esi
	movl	$128, %eax
	movl	%eax, %edx
	.loc	16 838 16 is_stmt 1     ## /Applications/Xcode.app/Contents/Developer/Toolchains/XcodeDefault.xctoolchain/usr/bin/../include/c++/v1/fstream:838:16
Ltmp412:
	movq	-256(%rbp), %rcx        ## 8-byte Reload
	movq	%rcx, -168(%rbp)
	movq	$-1, -176(%rbp)
	movq	-168(%rbp), %rdi
	.loc	8 473 92                ## /Applications/Xcode.app/Contents/Developer/Toolchains/XcodeDefault.xctoolchain/usr/bin/../include/c++/v1/string:473:92
Ltmp413:
	movq	-176(%rbp), %r8
	movq	%rdi, -152(%rbp)
	movq	%r8, -160(%rbp)
	movq	-152(%rbp), %rdi
	.loc	8 473 69 is_stmt 0      ## /Applications/Xcode.app/Contents/Developer/Toolchains/XcodeDefault.xctoolchain/usr/bin/../include/c++/v1/string:473:69
Ltmp414:
	movq	%rdi, %r8
	movq	%rdi, -280(%rbp)        ## 8-byte Spill
	movq	%r8, %rdi
	callq	_memset
	.loc	8 473 85                ## /Applications/Xcode.app/Contents/Developer/Toolchains/XcodeDefault.xctoolchain/usr/bin/../include/c++/v1/string:473:85
	movq	-160(%rbp), %rcx
	.loc	8 473 78                ## /Applications/Xcode.app/Contents/Developer/Toolchains/XcodeDefault.xctoolchain/usr/bin/../include/c++/v1/string:473:78
	movq	-280(%rbp), %rdx        ## 8-byte Reload
	movq	%rcx, 128(%rdx)
Ltmp415:
	.loc	16 838 9 is_stmt 1      ## /Applications/Xcode.app/Contents/Developer/Toolchains/XcodeDefault.xctoolchain/usr/bin/../include/c++/v1/fstream:838:9
	jmp	LBB20_6
Ltmp416:
LBB20_5:
	##DEBUG_VALUE: seekpos:__sp <- [%RBP+16]
	movl	$136, %eax
	movl	%eax, %edx
	movl	$128, %eax
	movl	%eax, %ecx
	leaq	-136(%rbp), %rsi
	.loc	16 840 5                ## /Applications/Xcode.app/Contents/Developer/Toolchains/XcodeDefault.xctoolchain/usr/bin/../include/c++/v1/fstream:840:5
	movq	-264(%rbp), %rdi        ## 8-byte Reload
	addq	$136, %rdi
	.loc	16 840 13 is_stmt 0     ## /Applications/Xcode.app/Contents/Developer/Toolchains/XcodeDefault.xctoolchain/usr/bin/../include/c++/v1/fstream:840:13
	movq	-248(%rbp), %r8         ## 8-byte Reload
	movq	%r8, -184(%rbp)
	movq	-184(%rbp), %r9
	.loc	8 477 61 is_stmt 1      ## /Applications/Xcode.app/Contents/Developer/Toolchains/XcodeDefault.xctoolchain/usr/bin/../include/c++/v1/string:477:61
Ltmp417:
	movq	%rsi, %r10
	movq	%rdi, -288(%rbp)        ## 8-byte Spill
	movq	%r10, %rdi
	movq	%rsi, -296(%rbp)        ## 8-byte Spill
	movq	%r9, %rsi
	movq	%rdx, -304(%rbp)        ## 8-byte Spill
	movq	%rcx, %rdx
	movq	%rcx, -312(%rbp)        ## 8-byte Spill
	callq	_memcpy
Ltmp418:
	.loc	16 840 11               ## /Applications/Xcode.app/Contents/Developer/Toolchains/XcodeDefault.xctoolchain/usr/bin/../include/c++/v1/fstream:840:11
	movq	-288(%rbp), %rcx        ## 8-byte Reload
	movq	-296(%rbp), %rdx        ## 8-byte Reload
	movq	%rcx, %rdi
	movq	%rdx, %rsi
	movq	-312(%rbp), %rdx        ## 8-byte Reload
	callq	_memcpy
	.loc	16 841 12               ## /Applications/Xcode.app/Contents/Developer/Toolchains/XcodeDefault.xctoolchain/usr/bin/../include/c++/v1/fstream:841:12
	movq	-256(%rbp), %rcx        ## 8-byte Reload
	movq	-248(%rbp), %rdx        ## 8-byte Reload
	movq	%rcx, %rdi
	movq	%rdx, %rsi
	movq	-304(%rbp), %rdx        ## 8-byte Reload
	callq	_memcpy
LBB20_6:
	##DEBUG_VALUE: seekpos:__sp <- [%RBP+16]
	movq	___stack_chk_guard@GOTPCREL(%rip), %rax
	movq	(%rax), %rax
	cmpq	-8(%rbp), %rax
	jne	LBB20_8
## BB#7:
	##DEBUG_VALUE: seekpos:__sp <- [%RBP+16]
	.loc	16 842 1                ## /Applications/Xcode.app/Contents/Developer/Toolchains/XcodeDefault.xctoolchain/usr/bin/../include/c++/v1/fstream:842:1
	movq	-240(%rbp), %rax        ## 8-byte Reload
	addq	$320, %rsp              ## imm = 0x140
	popq	%rbp
	retq
Ltmp419:
LBB20_8:
	##DEBUG_VALUE: seekpos:__sp <- [%RBP+16]
	callq	___stack_chk_fail
Lfunc_end20:
	.cfi_endproc

	.globl	__ZNSt3__113basic_filebufIcNS_11char_traitsIcEEE4syncEv
	.weak_def_can_be_hidden	__ZNSt3__113basic_filebufIcNS_11char_traitsIcEEE4syncEv
	.align	4, 0x90
__ZNSt3__113basic_filebufIcNS_11char_traitsIcEEE4syncEv: ## @_ZNSt3__113basic_filebufIcNS_11char_traitsIcEEE4syncEv
Lfunc_begin21:
	.loc	16 847 0                ## /Applications/Xcode.app/Contents/Developer/Toolchains/XcodeDefault.xctoolchain/usr/bin/../include/c++/v1/fstream:847:0
	.cfi_startproc
## BB#0:
	pushq	%rbp
Ltmp420:
	.cfi_def_cfa_offset 16
Ltmp421:
	.cfi_offset %rbp, -16
	movq	%rsp, %rbp
Ltmp422:
	.cfi_def_cfa_register %rbp
	subq	$480, %rsp              ## imm = 0x1E0
	movq	___stack_chk_guard@GOTPCREL(%rip), %rax
	movq	(%rax), %rax
	movq	%rax, -8(%rbp)
	movq	%rdi, -352(%rbp)
	movq	-352(%rbp), %rax
	.loc	16 848 17 prologue_end  ## /Applications/Xcode.app/Contents/Developer/Toolchains/XcodeDefault.xctoolchain/usr/bin/../include/c++/v1/fstream:848:17
Ltmp423:
	cmpq	$0, 120(%rax)
Ltmp424:
	.loc	16 848 9 is_stmt 0      ## /Applications/Xcode.app/Contents/Developer/Toolchains/XcodeDefault.xctoolchain/usr/bin/../include/c++/v1/fstream:848:9
	movq	%rax, -408(%rbp)        ## 8-byte Spill
	jne	LBB21_2
## BB#1:
	.loc	16 849 9 is_stmt 1      ## /Applications/Xcode.app/Contents/Developer/Toolchains/XcodeDefault.xctoolchain/usr/bin/../include/c++/v1/fstream:849:9
Ltmp425:
	movl	$0, -340(%rbp)
	jmp	LBB21_35
Ltmp426:
LBB21_2:
	.loc	16 851 10               ## /Applications/Xcode.app/Contents/Developer/Toolchains/XcodeDefault.xctoolchain/usr/bin/../include/c++/v1/fstream:851:10
	movq	-408(%rbp), %rax        ## 8-byte Reload
	cmpq	$0, 128(%rax)
Ltmp427:
	.loc	16 851 9 is_stmt 0      ## /Applications/Xcode.app/Contents/Developer/Toolchains/XcodeDefault.xctoolchain/usr/bin/../include/c++/v1/fstream:851:9
	jne	LBB21_4
## BB#3:
	movl	$8, %eax
	movl	%eax, %edi
	.loc	16 852 9 is_stmt 1      ## /Applications/Xcode.app/Contents/Developer/Toolchains/XcodeDefault.xctoolchain/usr/bin/../include/c++/v1/fstream:852:9
Ltmp428:
	callq	___cxa_allocate_exception
	movq	%rax, %rdi
	.loc	16 852 15 is_stmt 0     ## /Applications/Xcode.app/Contents/Developer/Toolchains/XcodeDefault.xctoolchain/usr/bin/../include/c++/v1/fstream:852:15
	movq	%rax, -416(%rbp)        ## 8-byte Spill
	callq	__ZNSt8bad_castC1Ev
	movq	__ZTISt8bad_cast@GOTPCREL(%rip), %rax
	movq	__ZNSt8bad_castD1Ev@GOTPCREL(%rip), %rdi
	.loc	16 852 9                ## /Applications/Xcode.app/Contents/Developer/Toolchains/XcodeDefault.xctoolchain/usr/bin/../include/c++/v1/fstream:852:9
	movq	-416(%rbp), %rcx        ## 8-byte Reload
	movq	%rdi, -424(%rbp)        ## 8-byte Spill
	movq	%rcx, %rdi
	movq	%rax, %rsi
	movq	-424(%rbp), %rdx        ## 8-byte Reload
	callq	___cxa_throw
Ltmp429:
LBB21_4:
	.loc	16 854 9 is_stmt 1      ## /Applications/Xcode.app/Contents/Developer/Toolchains/XcodeDefault.xctoolchain/usr/bin/../include/c++/v1/fstream:854:9
	movq	-408(%rbp), %rax        ## 8-byte Reload
	movl	396(%rax), %ecx
	.loc	16 854 15 is_stmt 0     ## /Applications/Xcode.app/Contents/Developer/Toolchains/XcodeDefault.xctoolchain/usr/bin/../include/c++/v1/fstream:854:15
	andl	$16, %ecx
	.loc	16 854 9                ## /Applications/Xcode.app/Contents/Developer/Toolchains/XcodeDefault.xctoolchain/usr/bin/../include/c++/v1/fstream:854:9
	cmpl	$0, %ecx
Ltmp430:
	.loc	16 854 9                ## /Applications/Xcode.app/Contents/Developer/Toolchains/XcodeDefault.xctoolchain/usr/bin/../include/c++/v1/fstream:854:9
	je	LBB21_19
## BB#5:
	.loc	16 856 13 is_stmt 1     ## /Applications/Xcode.app/Contents/Developer/Toolchains/XcodeDefault.xctoolchain/usr/bin/../include/c++/v1/fstream:856:13
Ltmp431:
	movq	-408(%rbp), %rax        ## 8-byte Reload
	movq	%rax, -336(%rbp)
	movq	-336(%rbp), %rax
	.loc	15 177 60               ## /Applications/Xcode.app/Contents/Developer/Toolchains/XcodeDefault.xctoolchain/usr/bin/../include/c++/v1/streambuf:177:60
Ltmp432:
	movq	48(%rax), %rax
Ltmp433:
	.loc	16 856 29               ## /Applications/Xcode.app/Contents/Developer/Toolchains/XcodeDefault.xctoolchain/usr/bin/../include/c++/v1/fstream:856:29
	movq	-408(%rbp), %rcx        ## 8-byte Reload
	movq	%rcx, -256(%rbp)
	movq	-256(%rbp), %rcx
	.loc	16 856 26 is_stmt 0     ## /Applications/Xcode.app/Contents/Developer/Toolchains/XcodeDefault.xctoolchain/usr/bin/../include/c++/v1/fstream:856:26
	cmpq	40(%rcx), %rax
Ltmp434:
	.loc	16 856 13               ## /Applications/Xcode.app/Contents/Developer/Toolchains/XcodeDefault.xctoolchain/usr/bin/../include/c++/v1/fstream:856:13
	je	LBB21_9
## BB#6:
	.loc	16 857 17 is_stmt 1     ## /Applications/Xcode.app/Contents/Developer/Toolchains/XcodeDefault.xctoolchain/usr/bin/../include/c++/v1/fstream:857:17
Ltmp435:
	movq	-408(%rbp), %rax        ## 8-byte Reload
	movq	(%rax), %rcx
	movq	104(%rcx), %rcx
	movq	%rcx, -432(%rbp)        ## 8-byte Spill
	callq	__ZNSt3__111char_traitsIcE3eofEv
	movq	-408(%rbp), %rdi        ## 8-byte Reload
	movl	%eax, %esi
	movq	-432(%rbp), %rcx        ## 8-byte Reload
	callq	*%rcx
	.loc	16 857 31 is_stmt 0     ## /Applications/Xcode.app/Contents/Developer/Toolchains/XcodeDefault.xctoolchain/usr/bin/../include/c++/v1/fstream:857:31
	movl	%eax, -436(%rbp)        ## 4-byte Spill
	callq	__ZNSt3__111char_traitsIcE3eofEv
	.loc	16 857 28               ## /Applications/Xcode.app/Contents/Developer/Toolchains/XcodeDefault.xctoolchain/usr/bin/../include/c++/v1/fstream:857:28
	movl	-436(%rbp), %esi        ## 4-byte Reload
	cmpl	%eax, %esi
Ltmp436:
	.loc	16 857 17               ## /Applications/Xcode.app/Contents/Developer/Toolchains/XcodeDefault.xctoolchain/usr/bin/../include/c++/v1/fstream:857:17
	jne	LBB21_8
## BB#7:
	.loc	16 858 17 is_stmt 1     ## /Applications/Xcode.app/Contents/Developer/Toolchains/XcodeDefault.xctoolchain/usr/bin/../include/c++/v1/fstream:858:17
Ltmp437:
	movl	$-1, -340(%rbp)
	jmp	LBB21_35
LBB21_8:
	.loc	16 857 48               ## /Applications/Xcode.app/Contents/Developer/Toolchains/XcodeDefault.xctoolchain/usr/bin/../include/c++/v1/fstream:857:48
	jmp	LBB21_9
Ltmp438:
LBB21_9:
LBB21_10:                               ## =>This Inner Loop Header: Depth=1
	leaq	-368(%rbp), %rax
Ltmp439:
	##DEBUG_VALUE: __extbe <- %RAX
	.loc	16 863 19               ## /Applications/Xcode.app/Contents/Developer/Toolchains/XcodeDefault.xctoolchain/usr/bin/../include/c++/v1/fstream:863:19
	movq	-408(%rbp), %rcx        ## 8-byte Reload
	movq	128(%rcx), %rdx
	.loc	16 863 34 is_stmt 0     ## /Applications/Xcode.app/Contents/Developer/Toolchains/XcodeDefault.xctoolchain/usr/bin/../include/c++/v1/fstream:863:34
	addq	$136, %rcx
	.loc	16 863 41               ## /Applications/Xcode.app/Contents/Developer/Toolchains/XcodeDefault.xctoolchain/usr/bin/../include/c++/v1/fstream:863:41
	movq	-408(%rbp), %rsi        ## 8-byte Reload
	movq	64(%rsi), %rdi
	.loc	16 863 52               ## /Applications/Xcode.app/Contents/Developer/Toolchains/XcodeDefault.xctoolchain/usr/bin/../include/c++/v1/fstream:863:52
	movq	64(%rsi), %r8
	.loc	16 863 62               ## /Applications/Xcode.app/Contents/Developer/Toolchains/XcodeDefault.xctoolchain/usr/bin/../include/c++/v1/fstream:863:62
	addq	96(%rsi), %r8
	.loc	16 863 19               ## /Applications/Xcode.app/Contents/Developer/Toolchains/XcodeDefault.xctoolchain/usr/bin/../include/c++/v1/fstream:863:19
	movq	%rdx, -160(%rbp)
	movq	%rcx, -168(%rbp)
	movq	%rdi, -176(%rbp)
	movq	%r8, -184(%rbp)
	movq	%rax, -192(%rbp)
	movq	-160(%rbp), %rax
Ltmp440:
	.loc	7 847 16 is_stmt 1      ## /Applications/Xcode.app/Contents/Developer/Toolchains/XcodeDefault.xctoolchain/usr/bin/../include/c++/v1/__locale:847:16
	movq	(%rax), %rcx
	movq	40(%rcx), %rcx
	.loc	7 847 27 is_stmt 0      ## /Applications/Xcode.app/Contents/Developer/Toolchains/XcodeDefault.xctoolchain/usr/bin/../include/c++/v1/__locale:847:27
	movq	-168(%rbp), %rsi
	.loc	7 847 33                ## /Applications/Xcode.app/Contents/Developer/Toolchains/XcodeDefault.xctoolchain/usr/bin/../include/c++/v1/__locale:847:33
	movq	-176(%rbp), %rdx
	.loc	7 847 39                ## /Applications/Xcode.app/Contents/Developer/Toolchains/XcodeDefault.xctoolchain/usr/bin/../include/c++/v1/__locale:847:39
	movq	-184(%rbp), %rdi
	.loc	7 847 49                ## /Applications/Xcode.app/Contents/Developer/Toolchains/XcodeDefault.xctoolchain/usr/bin/../include/c++/v1/__locale:847:49
	movq	-192(%rbp), %r8
	.loc	7 847 16                ## /Applications/Xcode.app/Contents/Developer/Toolchains/XcodeDefault.xctoolchain/usr/bin/../include/c++/v1/__locale:847:16
	movq	%rdi, -448(%rbp)        ## 8-byte Spill
	movq	%rax, %rdi
	movq	-448(%rbp), %rax        ## 8-byte Reload
	movq	%rcx, -456(%rbp)        ## 8-byte Spill
	movq	%rax, %rcx
	movq	-456(%rbp), %r9         ## 8-byte Reload
	callq	*%r9
	movl	$1, %r10d
	movl	%r10d, %esi
Ltmp441:
	.loc	16 863 17 is_stmt 1     ## /Applications/Xcode.app/Contents/Developer/Toolchains/XcodeDefault.xctoolchain/usr/bin/../include/c++/v1/fstream:863:17
	movl	%eax, -356(%rbp)
	.loc	16 864 50               ## /Applications/Xcode.app/Contents/Developer/Toolchains/XcodeDefault.xctoolchain/usr/bin/../include/c++/v1/fstream:864:50
	movq	-368(%rbp), %rcx
	.loc	16 864 60 is_stmt 0     ## /Applications/Xcode.app/Contents/Developer/Toolchains/XcodeDefault.xctoolchain/usr/bin/../include/c++/v1/fstream:864:60
	movq	-408(%rbp), %rdx        ## 8-byte Reload
	movq	64(%rdx), %rdi
	.loc	16 864 58               ## /Applications/Xcode.app/Contents/Developer/Toolchains/XcodeDefault.xctoolchain/usr/bin/../include/c++/v1/fstream:864:58
	subq	%rdi, %rcx
	.loc	16 864 20               ## /Applications/Xcode.app/Contents/Developer/Toolchains/XcodeDefault.xctoolchain/usr/bin/../include/c++/v1/fstream:864:20
	movq	%rcx, -376(%rbp)
	.loc	16 865 24 is_stmt 1     ## /Applications/Xcode.app/Contents/Developer/Toolchains/XcodeDefault.xctoolchain/usr/bin/../include/c++/v1/fstream:865:24
Ltmp442:
	movq	64(%rdx), %rdi
	.loc	16 865 38 is_stmt 0     ## /Applications/Xcode.app/Contents/Developer/Toolchains/XcodeDefault.xctoolchain/usr/bin/../include/c++/v1/fstream:865:38
	movq	-376(%rbp), %rdx
	.loc	16 865 47               ## /Applications/Xcode.app/Contents/Developer/Toolchains/XcodeDefault.xctoolchain/usr/bin/../include/c++/v1/fstream:865:47
	movq	-408(%rbp), %rcx        ## 8-byte Reload
	movq	120(%rcx), %rcx
	.loc	16 865 17               ## /Applications/Xcode.app/Contents/Developer/Toolchains/XcodeDefault.xctoolchain/usr/bin/../include/c++/v1/fstream:865:17
	callq	_fwrite
	.loc	16 865 56               ## /Applications/Xcode.app/Contents/Developer/Toolchains/XcodeDefault.xctoolchain/usr/bin/../include/c++/v1/fstream:865:56
	cmpq	-376(%rbp), %rax
Ltmp443:
	.loc	16 865 17               ## /Applications/Xcode.app/Contents/Developer/Toolchains/XcodeDefault.xctoolchain/usr/bin/../include/c++/v1/fstream:865:17
	je	LBB21_12
## BB#11:
	.loc	16 866 17 is_stmt 1     ## /Applications/Xcode.app/Contents/Developer/Toolchains/XcodeDefault.xctoolchain/usr/bin/../include/c++/v1/fstream:866:17
Ltmp444:
	movl	$-1, -340(%rbp)
	jmp	LBB21_35
Ltmp445:
LBB21_12:                               ##   in Loop: Header=BB21_10 Depth=1
	.loc	16 867 9                ## /Applications/Xcode.app/Contents/Developer/Toolchains/XcodeDefault.xctoolchain/usr/bin/../include/c++/v1/fstream:867:9
	jmp	LBB21_13
Ltmp446:
LBB21_13:                               ##   in Loop: Header=BB21_10 Depth=1
	.loc	16 867 22 is_stmt 0     ## /Applications/Xcode.app/Contents/Developer/Toolchains/XcodeDefault.xctoolchain/usr/bin/../include/c++/v1/fstream:867:22
	cmpl	$1, -356(%rbp)
	.loc	16 867 9                ## /Applications/Xcode.app/Contents/Developer/Toolchains/XcodeDefault.xctoolchain/usr/bin/../include/c++/v1/fstream:867:9
Ltmp447:
	je	LBB21_10
Ltmp448:
## BB#14:
	.loc	16 868 17 is_stmt 1     ## /Applications/Xcode.app/Contents/Developer/Toolchains/XcodeDefault.xctoolchain/usr/bin/../include/c++/v1/fstream:868:17
	cmpl	$2, -356(%rbp)
Ltmp449:
	.loc	16 868 13 is_stmt 0     ## /Applications/Xcode.app/Contents/Developer/Toolchains/XcodeDefault.xctoolchain/usr/bin/../include/c++/v1/fstream:868:13
	jne	LBB21_16
## BB#15:
	.loc	16 869 13 is_stmt 1     ## /Applications/Xcode.app/Contents/Developer/Toolchains/XcodeDefault.xctoolchain/usr/bin/../include/c++/v1/fstream:869:13
Ltmp450:
	movl	$-1, -340(%rbp)
	jmp	LBB21_35
Ltmp451:
LBB21_16:
	.loc	16 870 20               ## /Applications/Xcode.app/Contents/Developer/Toolchains/XcodeDefault.xctoolchain/usr/bin/../include/c++/v1/fstream:870:20
	movq	-408(%rbp), %rax        ## 8-byte Reload
	movq	120(%rax), %rdi
	.loc	16 870 13 is_stmt 0     ## /Applications/Xcode.app/Contents/Developer/Toolchains/XcodeDefault.xctoolchain/usr/bin/../include/c++/v1/fstream:870:13
	callq	_fflush
	cmpl	$0, %eax
Ltmp452:
	.loc	16 870 13               ## /Applications/Xcode.app/Contents/Developer/Toolchains/XcodeDefault.xctoolchain/usr/bin/../include/c++/v1/fstream:870:13
	je	LBB21_18
## BB#17:
	.loc	16 871 13 is_stmt 1     ## /Applications/Xcode.app/Contents/Developer/Toolchains/XcodeDefault.xctoolchain/usr/bin/../include/c++/v1/fstream:871:13
Ltmp453:
	movl	$-1, -340(%rbp)
	jmp	LBB21_35
Ltmp454:
LBB21_18:
	.loc	16 872 5                ## /Applications/Xcode.app/Contents/Developer/Toolchains/XcodeDefault.xctoolchain/usr/bin/../include/c++/v1/fstream:872:5
	jmp	LBB21_34
Ltmp455:
LBB21_19:
	.loc	16 873 14               ## /Applications/Xcode.app/Contents/Developer/Toolchains/XcodeDefault.xctoolchain/usr/bin/../include/c++/v1/fstream:873:14
	movq	-408(%rbp), %rax        ## 8-byte Reload
	movl	396(%rax), %ecx
	.loc	16 873 20 is_stmt 0     ## /Applications/Xcode.app/Contents/Developer/Toolchains/XcodeDefault.xctoolchain/usr/bin/../include/c++/v1/fstream:873:20
	andl	$8, %ecx
	.loc	16 873 14               ## /Applications/Xcode.app/Contents/Developer/Toolchains/XcodeDefault.xctoolchain/usr/bin/../include/c++/v1/fstream:873:14
	cmpl	$0, %ecx
Ltmp456:
	.loc	16 873 14               ## /Applications/Xcode.app/Contents/Developer/Toolchains/XcodeDefault.xctoolchain/usr/bin/../include/c++/v1/fstream:873:14
	je	LBB21_33
## BB#20:
	movl	$128, %eax
	movl	%eax, %edx
	leaq	-136(%rbp), %rcx
Ltmp457:
	##DEBUG_VALUE: __state <- %RCX
	.loc	16 876 30 is_stmt 1     ## /Applications/Xcode.app/Contents/Developer/Toolchains/XcodeDefault.xctoolchain/usr/bin/../include/c++/v1/fstream:876:30
	movq	-408(%rbp), %rsi        ## 8-byte Reload
	addq	$264, %rsi              ## imm = 0x108
	movq	%rcx, %rdi
	callq	_memcpy
Ltmp458:
	.loc	16 877 14               ## /Applications/Xcode.app/Contents/Developer/Toolchains/XcodeDefault.xctoolchain/usr/bin/../include/c++/v1/fstream:877:14
	movb	$0, -385(%rbp)
	.loc	16 878 13               ## /Applications/Xcode.app/Contents/Developer/Toolchains/XcodeDefault.xctoolchain/usr/bin/../include/c++/v1/fstream:878:13
	movq	-408(%rbp), %rcx        ## 8-byte Reload
	testb	$1, 402(%rcx)
	je	LBB21_22
## BB#21:
	.loc	16 879 19               ## /Applications/Xcode.app/Contents/Developer/Toolchains/XcodeDefault.xctoolchain/usr/bin/../include/c++/v1/fstream:879:19
Ltmp459:
	movq	-408(%rbp), %rax        ## 8-byte Reload
	movq	%rax, -152(%rbp)
	movq	-152(%rbp), %rax
	.loc	15 171 60               ## /Applications/Xcode.app/Contents/Developer/Toolchains/XcodeDefault.xctoolchain/usr/bin/../include/c++/v1/streambuf:171:60
Ltmp460:
	movq	32(%rax), %rax
Ltmp461:
	.loc	16 879 35               ## /Applications/Xcode.app/Contents/Developer/Toolchains/XcodeDefault.xctoolchain/usr/bin/../include/c++/v1/fstream:879:35
	movq	-408(%rbp), %rcx        ## 8-byte Reload
	movq	%rcx, -144(%rbp)
	movq	-144(%rbp), %rcx
	.loc	15 170 60               ## /Applications/Xcode.app/Contents/Developer/Toolchains/XcodeDefault.xctoolchain/usr/bin/../include/c++/v1/streambuf:170:60
Ltmp462:
	movq	24(%rcx), %rcx
Ltmp463:
	.loc	16 879 33               ## /Applications/Xcode.app/Contents/Developer/Toolchains/XcodeDefault.xctoolchain/usr/bin/../include/c++/v1/fstream:879:33
	subq	%rcx, %rax
	.loc	16 879 17 is_stmt 0     ## /Applications/Xcode.app/Contents/Developer/Toolchains/XcodeDefault.xctoolchain/usr/bin/../include/c++/v1/fstream:879:17
	movq	%rax, -384(%rbp)
	.loc	16 879 13               ## /Applications/Xcode.app/Contents/Developer/Toolchains/XcodeDefault.xctoolchain/usr/bin/../include/c++/v1/fstream:879:13
	jmp	LBB21_28
LBB21_22:
	.loc	16 882 27 is_stmt 1     ## /Applications/Xcode.app/Contents/Developer/Toolchains/XcodeDefault.xctoolchain/usr/bin/../include/c++/v1/fstream:882:27
Ltmp464:
	movq	-408(%rbp), %rax        ## 8-byte Reload
	movq	128(%rax), %rcx
	movq	%rcx, -200(%rbp)
	movq	-200(%rbp), %rcx
	.loc	7 861 16                ## /Applications/Xcode.app/Contents/Developer/Toolchains/XcodeDefault.xctoolchain/usr/bin/../include/c++/v1/__locale:861:16
Ltmp465:
	movq	(%rcx), %rdx
	movq	%rcx, %rdi
	callq	*48(%rdx)
Ltmp466:
	.loc	16 882 17               ## /Applications/Xcode.app/Contents/Developer/Toolchains/XcodeDefault.xctoolchain/usr/bin/../include/c++/v1/fstream:882:17
	movl	%eax, -392(%rbp)
	.loc	16 883 19               ## /Applications/Xcode.app/Contents/Developer/Toolchains/XcodeDefault.xctoolchain/usr/bin/../include/c++/v1/fstream:883:19
	movq	-408(%rbp), %rcx        ## 8-byte Reload
	movq	80(%rcx), %rdx
	.loc	16 883 34 is_stmt 0     ## /Applications/Xcode.app/Contents/Developer/Toolchains/XcodeDefault.xctoolchain/usr/bin/../include/c++/v1/fstream:883:34
	movq	72(%rcx), %rdi
	.loc	16 883 32               ## /Applications/Xcode.app/Contents/Developer/Toolchains/XcodeDefault.xctoolchain/usr/bin/../include/c++/v1/fstream:883:32
	subq	%rdi, %rdx
	.loc	16 883 17               ## /Applications/Xcode.app/Contents/Developer/Toolchains/XcodeDefault.xctoolchain/usr/bin/../include/c++/v1/fstream:883:17
	movq	%rdx, -384(%rbp)
	.loc	16 884 25 is_stmt 1     ## /Applications/Xcode.app/Contents/Developer/Toolchains/XcodeDefault.xctoolchain/usr/bin/../include/c++/v1/fstream:884:25
Ltmp467:
	cmpl	$0, -392(%rbp)
Ltmp468:
	.loc	16 884 17 is_stmt 0     ## /Applications/Xcode.app/Contents/Developer/Toolchains/XcodeDefault.xctoolchain/usr/bin/../include/c++/v1/fstream:884:17
	jle	LBB21_24
## BB#23:
	.loc	16 885 24 is_stmt 1     ## /Applications/Xcode.app/Contents/Developer/Toolchains/XcodeDefault.xctoolchain/usr/bin/../include/c++/v1/fstream:885:24
Ltmp469:
	movslq	-392(%rbp), %rax
	.loc	16 885 35 is_stmt 0     ## /Applications/Xcode.app/Contents/Developer/Toolchains/XcodeDefault.xctoolchain/usr/bin/../include/c++/v1/fstream:885:35
	movq	-408(%rbp), %rcx        ## 8-byte Reload
	movq	%rcx, -208(%rbp)
	movq	-208(%rbp), %rcx
	.loc	15 171 60 is_stmt 1     ## /Applications/Xcode.app/Contents/Developer/Toolchains/XcodeDefault.xctoolchain/usr/bin/../include/c++/v1/streambuf:171:60
Ltmp470:
	movq	32(%rcx), %rcx
Ltmp471:
	.loc	16 885 51               ## /Applications/Xcode.app/Contents/Developer/Toolchains/XcodeDefault.xctoolchain/usr/bin/../include/c++/v1/fstream:885:51
	movq	-408(%rbp), %rdx        ## 8-byte Reload
	movq	%rdx, -216(%rbp)
	movq	-216(%rbp), %rdx
	.loc	15 170 60               ## /Applications/Xcode.app/Contents/Developer/Toolchains/XcodeDefault.xctoolchain/usr/bin/../include/c++/v1/streambuf:170:60
Ltmp472:
	movq	24(%rdx), %rdx
Ltmp473:
	.loc	16 885 49               ## /Applications/Xcode.app/Contents/Developer/Toolchains/XcodeDefault.xctoolchain/usr/bin/../include/c++/v1/fstream:885:49
	subq	%rdx, %rcx
	.loc	16 885 32 is_stmt 0     ## /Applications/Xcode.app/Contents/Developer/Toolchains/XcodeDefault.xctoolchain/usr/bin/../include/c++/v1/fstream:885:32
	imulq	%rcx, %rax
	.loc	16 885 21               ## /Applications/Xcode.app/Contents/Developer/Toolchains/XcodeDefault.xctoolchain/usr/bin/../include/c++/v1/fstream:885:21
	addq	-384(%rbp), %rax
	movq	%rax, -384(%rbp)
	.loc	16 885 17               ## /Applications/Xcode.app/Contents/Developer/Toolchains/XcodeDefault.xctoolchain/usr/bin/../include/c++/v1/fstream:885:17
	jmp	LBB21_27
LBB21_24:
	.loc	16 888 21 is_stmt 1     ## /Applications/Xcode.app/Contents/Developer/Toolchains/XcodeDefault.xctoolchain/usr/bin/../include/c++/v1/fstream:888:21
Ltmp474:
	movq	-408(%rbp), %rax        ## 8-byte Reload
	movq	%rax, -224(%rbp)
	movq	-224(%rbp), %rax
	.loc	15 170 60               ## /Applications/Xcode.app/Contents/Developer/Toolchains/XcodeDefault.xctoolchain/usr/bin/../include/c++/v1/streambuf:170:60
Ltmp475:
	movq	24(%rax), %rax
Ltmp476:
	.loc	16 888 37               ## /Applications/Xcode.app/Contents/Developer/Toolchains/XcodeDefault.xctoolchain/usr/bin/../include/c++/v1/fstream:888:37
	movq	-408(%rbp), %rcx        ## 8-byte Reload
	movq	%rcx, -232(%rbp)
	movq	-232(%rbp), %rcx
	.loc	16 888 34 is_stmt 0     ## /Applications/Xcode.app/Contents/Developer/Toolchains/XcodeDefault.xctoolchain/usr/bin/../include/c++/v1/fstream:888:34
	cmpq	32(%rcx), %rax
Ltmp477:
	.loc	16 888 21               ## /Applications/Xcode.app/Contents/Developer/Toolchains/XcodeDefault.xctoolchain/usr/bin/../include/c++/v1/fstream:888:21
	je	LBB21_26
## BB#25:
	leaq	-136(%rbp), %rax
	.loc	16 890 40 is_stmt 1     ## /Applications/Xcode.app/Contents/Developer/Toolchains/XcodeDefault.xctoolchain/usr/bin/../include/c++/v1/fstream:890:40
Ltmp478:
	movq	-408(%rbp), %rcx        ## 8-byte Reload
	movq	128(%rcx), %rdx
	.loc	16 890 63 is_stmt 0     ## /Applications/Xcode.app/Contents/Developer/Toolchains/XcodeDefault.xctoolchain/usr/bin/../include/c++/v1/fstream:890:63
	movq	64(%rcx), %rsi
	.loc	16 891 54 is_stmt 1     ## /Applications/Xcode.app/Contents/Developer/Toolchains/XcodeDefault.xctoolchain/usr/bin/../include/c++/v1/fstream:891:54
	movq	72(%rcx), %rdi
	.loc	16 892 54               ## /Applications/Xcode.app/Contents/Developer/Toolchains/XcodeDefault.xctoolchain/usr/bin/../include/c++/v1/fstream:892:54
	movq	%rcx, -240(%rbp)
	movq	-240(%rbp), %rcx
	.loc	15 170 60               ## /Applications/Xcode.app/Contents/Developer/Toolchains/XcodeDefault.xctoolchain/usr/bin/../include/c++/v1/streambuf:170:60
Ltmp479:
	movq	24(%rcx), %rcx
Ltmp480:
	.loc	16 892 69               ## /Applications/Xcode.app/Contents/Developer/Toolchains/XcodeDefault.xctoolchain/usr/bin/../include/c++/v1/fstream:892:69
	movq	-408(%rbp), %r8         ## 8-byte Reload
	movq	%r8, -248(%rbp)
	movq	-248(%rbp), %r8
	.loc	15 169 60               ## /Applications/Xcode.app/Contents/Developer/Toolchains/XcodeDefault.xctoolchain/usr/bin/../include/c++/v1/streambuf:169:60
Ltmp481:
	movq	16(%r8), %r8
Ltmp482:
	.loc	16 892 67               ## /Applications/Xcode.app/Contents/Developer/Toolchains/XcodeDefault.xctoolchain/usr/bin/../include/c++/v1/fstream:892:67
	subq	%r8, %rcx
	.loc	16 890 40               ## /Applications/Xcode.app/Contents/Developer/Toolchains/XcodeDefault.xctoolchain/usr/bin/../include/c++/v1/fstream:890:40
	movq	%rdx, -264(%rbp)
	movq	%rax, -272(%rbp)
	movq	%rsi, -280(%rbp)
	movq	%rdi, -288(%rbp)
	movq	%rcx, -296(%rbp)
	movq	-264(%rbp), %rax
	.loc	7 873 16                ## /Applications/Xcode.app/Contents/Developer/Toolchains/XcodeDefault.xctoolchain/usr/bin/../include/c++/v1/__locale:873:16
Ltmp483:
	movq	(%rax), %rcx
	movq	64(%rcx), %rcx
	.loc	7 873 26 is_stmt 0      ## /Applications/Xcode.app/Contents/Developer/Toolchains/XcodeDefault.xctoolchain/usr/bin/../include/c++/v1/__locale:873:26
	movq	-272(%rbp), %rsi
	.loc	7 873 32                ## /Applications/Xcode.app/Contents/Developer/Toolchains/XcodeDefault.xctoolchain/usr/bin/../include/c++/v1/__locale:873:32
	movq	-280(%rbp), %rdx
	.loc	7 873 39                ## /Applications/Xcode.app/Contents/Developer/Toolchains/XcodeDefault.xctoolchain/usr/bin/../include/c++/v1/__locale:873:39
	movq	-288(%rbp), %rdi
	.loc	7 873 46                ## /Applications/Xcode.app/Contents/Developer/Toolchains/XcodeDefault.xctoolchain/usr/bin/../include/c++/v1/__locale:873:46
	movq	-296(%rbp), %r8
	.loc	7 873 16                ## /Applications/Xcode.app/Contents/Developer/Toolchains/XcodeDefault.xctoolchain/usr/bin/../include/c++/v1/__locale:873:16
	movq	%rdi, -464(%rbp)        ## 8-byte Spill
	movq	%rax, %rdi
	movq	-464(%rbp), %rax        ## 8-byte Reload
	movq	%rcx, -472(%rbp)        ## 8-byte Spill
	movq	%rax, %rcx
	movq	-472(%rbp), %r9         ## 8-byte Reload
	callq	*%r9
Ltmp484:
	.loc	16 890 31 is_stmt 1     ## /Applications/Xcode.app/Contents/Developer/Toolchains/XcodeDefault.xctoolchain/usr/bin/../include/c++/v1/fstream:890:31
	movl	%eax, -396(%rbp)
	.loc	16 893 28               ## /Applications/Xcode.app/Contents/Developer/Toolchains/XcodeDefault.xctoolchain/usr/bin/../include/c++/v1/fstream:893:28
	movq	-408(%rbp), %rcx        ## 8-byte Reload
	movq	72(%rcx), %rdx
	.loc	16 893 44 is_stmt 0     ## /Applications/Xcode.app/Contents/Developer/Toolchains/XcodeDefault.xctoolchain/usr/bin/../include/c++/v1/fstream:893:44
	movq	64(%rcx), %rsi
	.loc	16 893 42               ## /Applications/Xcode.app/Contents/Developer/Toolchains/XcodeDefault.xctoolchain/usr/bin/../include/c++/v1/fstream:893:42
	subq	%rsi, %rdx
	.loc	16 893 56               ## /Applications/Xcode.app/Contents/Developer/Toolchains/XcodeDefault.xctoolchain/usr/bin/../include/c++/v1/fstream:893:56
	movslq	-396(%rbp), %rsi
	.loc	16 893 54               ## /Applications/Xcode.app/Contents/Developer/Toolchains/XcodeDefault.xctoolchain/usr/bin/../include/c++/v1/fstream:893:54
	subq	%rsi, %rdx
	.loc	16 893 25               ## /Applications/Xcode.app/Contents/Developer/Toolchains/XcodeDefault.xctoolchain/usr/bin/../include/c++/v1/fstream:893:25
	addq	-384(%rbp), %rdx
	movq	%rdx, -384(%rbp)
	.loc	16 894 33 is_stmt 1     ## /Applications/Xcode.app/Contents/Developer/Toolchains/XcodeDefault.xctoolchain/usr/bin/../include/c++/v1/fstream:894:33
	movb	$1, -385(%rbp)
Ltmp485:
LBB21_26:
	jmp	LBB21_27
LBB21_27:
	jmp	LBB21_28
LBB21_28:
	movl	$1, %edx
	xorl	%eax, %eax
	movl	%eax, %ecx
	.loc	16 902 20               ## /Applications/Xcode.app/Contents/Developer/Toolchains/XcodeDefault.xctoolchain/usr/bin/../include/c++/v1/fstream:902:20
Ltmp486:
	movq	-408(%rbp), %rsi        ## 8-byte Reload
	movq	120(%rsi), %rdi
	.loc	16 902 29 is_stmt 0     ## /Applications/Xcode.app/Contents/Developer/Toolchains/XcodeDefault.xctoolchain/usr/bin/../include/c++/v1/fstream:902:29
	subq	-384(%rbp), %rcx
	.loc	16 902 13               ## /Applications/Xcode.app/Contents/Developer/Toolchains/XcodeDefault.xctoolchain/usr/bin/../include/c++/v1/fstream:902:13
	movq	%rcx, %rsi
	callq	_fseeko
	cmpl	$0, %eax
Ltmp487:
	.loc	16 902 13               ## /Applications/Xcode.app/Contents/Developer/Toolchains/XcodeDefault.xctoolchain/usr/bin/../include/c++/v1/fstream:902:13
	je	LBB21_30
## BB#29:
	.loc	16 903 13 is_stmt 1     ## /Applications/Xcode.app/Contents/Developer/Toolchains/XcodeDefault.xctoolchain/usr/bin/../include/c++/v1/fstream:903:13
Ltmp488:
	movl	$-1, -340(%rbp)
	jmp	LBB21_35
Ltmp489:
LBB21_30:
	.loc	16 905 13               ## /Applications/Xcode.app/Contents/Developer/Toolchains/XcodeDefault.xctoolchain/usr/bin/../include/c++/v1/fstream:905:13
	testb	$1, -385(%rbp)
	je	LBB21_32
## BB#31:
	movl	$128, %eax
	movl	%eax, %edx
	leaq	-136(%rbp), %rcx
	.loc	16 906 13               ## /Applications/Xcode.app/Contents/Developer/Toolchains/XcodeDefault.xctoolchain/usr/bin/../include/c++/v1/fstream:906:13
Ltmp490:
	movq	-408(%rbp), %rsi        ## 8-byte Reload
	addq	$136, %rsi
	.loc	16 906 19 is_stmt 0     ## /Applications/Xcode.app/Contents/Developer/Toolchains/XcodeDefault.xctoolchain/usr/bin/../include/c++/v1/fstream:906:19
	movq	%rsi, %rdi
	movq	%rcx, %rsi
	callq	_memcpy
Ltmp491:
LBB21_32:
	.loc	16 907 40 is_stmt 1     ## /Applications/Xcode.app/Contents/Developer/Toolchains/XcodeDefault.xctoolchain/usr/bin/../include/c++/v1/fstream:907:40
	movq	-408(%rbp), %rax        ## 8-byte Reload
	movq	64(%rax), %rcx
	.loc	16 907 38 is_stmt 0     ## /Applications/Xcode.app/Contents/Developer/Toolchains/XcodeDefault.xctoolchain/usr/bin/../include/c++/v1/fstream:907:38
	movq	%rcx, 80(%rax)
	.loc	16 907 23               ## /Applications/Xcode.app/Contents/Developer/Toolchains/XcodeDefault.xctoolchain/usr/bin/../include/c++/v1/fstream:907:23
	movq	%rcx, 72(%rax)
	.loc	16 908 9 is_stmt 1      ## /Applications/Xcode.app/Contents/Developer/Toolchains/XcodeDefault.xctoolchain/usr/bin/../include/c++/v1/fstream:908:9
	movq	%rax, -304(%rbp)
	movq	$0, -312(%rbp)
	movq	$0, -320(%rbp)
	movq	$0, -328(%rbp)
	movq	-304(%rbp), %rax
	.loc	15 427 15               ## /Applications/Xcode.app/Contents/Developer/Toolchains/XcodeDefault.xctoolchain/usr/bin/../include/c++/v1/streambuf:427:15
Ltmp492:
	movq	-312(%rbp), %rcx
	.loc	15 427 13 is_stmt 0     ## /Applications/Xcode.app/Contents/Developer/Toolchains/XcodeDefault.xctoolchain/usr/bin/../include/c++/v1/streambuf:427:13
	movq	%rcx, 16(%rax)
	.loc	15 428 15 is_stmt 1     ## /Applications/Xcode.app/Contents/Developer/Toolchains/XcodeDefault.xctoolchain/usr/bin/../include/c++/v1/streambuf:428:15
	movq	-320(%rbp), %rcx
	.loc	15 428 13 is_stmt 0     ## /Applications/Xcode.app/Contents/Developer/Toolchains/XcodeDefault.xctoolchain/usr/bin/../include/c++/v1/streambuf:428:13
	movq	%rcx, 24(%rax)
	.loc	15 429 15 is_stmt 1     ## /Applications/Xcode.app/Contents/Developer/Toolchains/XcodeDefault.xctoolchain/usr/bin/../include/c++/v1/streambuf:429:15
	movq	-328(%rbp), %rcx
	.loc	15 429 13 is_stmt 0     ## /Applications/Xcode.app/Contents/Developer/Toolchains/XcodeDefault.xctoolchain/usr/bin/../include/c++/v1/streambuf:429:13
	movq	%rcx, 32(%rax)
Ltmp493:
	.loc	16 909 15 is_stmt 1     ## /Applications/Xcode.app/Contents/Developer/Toolchains/XcodeDefault.xctoolchain/usr/bin/../include/c++/v1/fstream:909:15
	movq	-408(%rbp), %rax        ## 8-byte Reload
	movl	$0, 396(%rax)
Ltmp494:
LBB21_33:
	jmp	LBB21_34
LBB21_34:
	.loc	16 911 5                ## /Applications/Xcode.app/Contents/Developer/Toolchains/XcodeDefault.xctoolchain/usr/bin/../include/c++/v1/fstream:911:5
	movl	$0, -340(%rbp)
LBB21_35:
	movq	___stack_chk_guard@GOTPCREL(%rip), %rax
	.loc	16 912 1                ## /Applications/Xcode.app/Contents/Developer/Toolchains/XcodeDefault.xctoolchain/usr/bin/../include/c++/v1/fstream:912:1
	movl	-340(%rbp), %ecx
	movq	(%rax), %rax
	cmpq	-8(%rbp), %rax
	movl	%ecx, -476(%rbp)        ## 4-byte Spill
	jne	LBB21_37
## BB#36:
	movl	-476(%rbp), %eax        ## 4-byte Reload
	addq	$480, %rsp              ## imm = 0x1E0
	popq	%rbp
	retq
Ltmp495:
LBB21_37:
	callq	___stack_chk_fail
Lfunc_end21:
	.cfi_endproc

	.globl	__ZNSt3__113basic_filebufIcNS_11char_traitsIcEEE9underflowEv
	.weak_def_can_be_hidden	__ZNSt3__113basic_filebufIcNS_11char_traitsIcEEE9underflowEv
	.align	4, 0x90
__ZNSt3__113basic_filebufIcNS_11char_traitsIcEEE9underflowEv: ## @_ZNSt3__113basic_filebufIcNS_11char_traitsIcEEE9underflowEv
Lfunc_begin22:
	.loc	16 580 0                ## /Applications/Xcode.app/Contents/Developer/Toolchains/XcodeDefault.xctoolchain/usr/bin/../include/c++/v1/fstream:580:0
	.cfi_startproc
## BB#0:
	pushq	%rbp
Ltmp496:
	.cfi_def_cfa_offset 16
Ltmp497:
	.cfi_offset %rbp, -16
	movq	%rsp, %rbp
Ltmp498:
	.cfi_def_cfa_register %rbp
	pushq	%rbx
	subq	$792, %rsp              ## imm = 0x318
Ltmp499:
	.cfi_offset %rbx, -24
	movq	%rdi, -576(%rbp)
	movq	-576(%rbp), %rdi
	.loc	16 581 17 prologue_end  ## /Applications/Xcode.app/Contents/Developer/Toolchains/XcodeDefault.xctoolchain/usr/bin/../include/c++/v1/fstream:581:17
Ltmp500:
	cmpq	$0, 120(%rdi)
Ltmp501:
	.loc	16 581 9 is_stmt 0      ## /Applications/Xcode.app/Contents/Developer/Toolchains/XcodeDefault.xctoolchain/usr/bin/../include/c++/v1/fstream:581:9
	movq	%rdi, -680(%rbp)        ## 8-byte Spill
	jne	LBB22_2
## BB#1:
	.loc	16 582 16 is_stmt 1     ## /Applications/Xcode.app/Contents/Developer/Toolchains/XcodeDefault.xctoolchain/usr/bin/../include/c++/v1/fstream:582:16
Ltmp502:
	callq	__ZNSt3__111char_traitsIcE3eofEv
	.loc	16 582 9 is_stmt 0      ## /Applications/Xcode.app/Contents/Developer/Toolchains/XcodeDefault.xctoolchain/usr/bin/../include/c++/v1/fstream:582:9
	movl	%eax, -564(%rbp)
	jmp	LBB22_36
Ltmp503:
LBB22_2:
	.loc	16 583 22 is_stmt 1     ## /Applications/Xcode.app/Contents/Developer/Toolchains/XcodeDefault.xctoolchain/usr/bin/../include/c++/v1/fstream:583:22
	movq	-680(%rbp), %rdi        ## 8-byte Reload
	callq	__ZNSt3__113basic_filebufIcNS_11char_traitsIcEEE11__read_modeEv
	.loc	16 583 10 is_stmt 0     ## /Applications/Xcode.app/Contents/Developer/Toolchains/XcodeDefault.xctoolchain/usr/bin/../include/c++/v1/fstream:583:10
	andb	$1, %al
	movb	%al, -577(%rbp)
	.loc	16 585 9 is_stmt 1      ## /Applications/Xcode.app/Contents/Developer/Toolchains/XcodeDefault.xctoolchain/usr/bin/../include/c++/v1/fstream:585:9
Ltmp504:
	movq	-680(%rbp), %rdi        ## 8-byte Reload
	movq	%rdi, -560(%rbp)
	movq	-560(%rbp), %rdi
	.loc	16 585 22 is_stmt 0     ## /Applications/Xcode.app/Contents/Developer/Toolchains/XcodeDefault.xctoolchain/usr/bin/../include/c++/v1/fstream:585:22
	cmpq	$0, 24(%rdi)
Ltmp505:
	.loc	16 585 9                ## /Applications/Xcode.app/Contents/Developer/Toolchains/XcodeDefault.xctoolchain/usr/bin/../include/c++/v1/fstream:585:9
	jne	LBB22_4
## BB#3:
	leaq	-578(%rbp), %rax
	.loc	16 586 9 is_stmt 1      ## /Applications/Xcode.app/Contents/Developer/Toolchains/XcodeDefault.xctoolchain/usr/bin/../include/c++/v1/fstream:586:9
Ltmp506:
	movq	-680(%rbp), %rcx        ## 8-byte Reload
	.loc	16 586 36 is_stmt 0     ## /Applications/Xcode.app/Contents/Developer/Toolchains/XcodeDefault.xctoolchain/usr/bin/../include/c++/v1/fstream:586:36
	movq	%rax, %rdx
	addq	$1, %rdx
	.loc	16 586 47               ## /Applications/Xcode.app/Contents/Developer/Toolchains/XcodeDefault.xctoolchain/usr/bin/../include/c++/v1/fstream:586:47
	movq	%rax, %rsi
	addq	$1, %rsi
	.loc	16 586 9                ## /Applications/Xcode.app/Contents/Developer/Toolchains/XcodeDefault.xctoolchain/usr/bin/../include/c++/v1/fstream:586:9
	movq	%rcx, -488(%rbp)
	movq	%rax, -496(%rbp)
	movq	%rdx, -504(%rbp)
	movq	%rsi, -512(%rbp)
	movq	-488(%rbp), %rax
	.loc	15 427 15 is_stmt 1     ## /Applications/Xcode.app/Contents/Developer/Toolchains/XcodeDefault.xctoolchain/usr/bin/../include/c++/v1/streambuf:427:15
Ltmp507:
	movq	-496(%rbp), %rcx
	.loc	15 427 13 is_stmt 0     ## /Applications/Xcode.app/Contents/Developer/Toolchains/XcodeDefault.xctoolchain/usr/bin/../include/c++/v1/streambuf:427:13
	movq	%rcx, 16(%rax)
	.loc	15 428 15 is_stmt 1     ## /Applications/Xcode.app/Contents/Developer/Toolchains/XcodeDefault.xctoolchain/usr/bin/../include/c++/v1/streambuf:428:15
	movq	-504(%rbp), %rcx
	.loc	15 428 13 is_stmt 0     ## /Applications/Xcode.app/Contents/Developer/Toolchains/XcodeDefault.xctoolchain/usr/bin/../include/c++/v1/streambuf:428:13
	movq	%rcx, 24(%rax)
	.loc	15 429 15 is_stmt 1     ## /Applications/Xcode.app/Contents/Developer/Toolchains/XcodeDefault.xctoolchain/usr/bin/../include/c++/v1/streambuf:429:15
	movq	-512(%rbp), %rcx
	.loc	15 429 13 is_stmt 0     ## /Applications/Xcode.app/Contents/Developer/Toolchains/XcodeDefault.xctoolchain/usr/bin/../include/c++/v1/streambuf:429:13
	movq	%rcx, 32(%rax)
Ltmp508:
LBB22_4:
	.loc	16 587 31 is_stmt 1     ## /Applications/Xcode.app/Contents/Developer/Toolchains/XcodeDefault.xctoolchain/usr/bin/../include/c++/v1/fstream:587:31
	testb	$1, -577(%rbp)
	je	LBB22_6
## BB#5:
	xorl	%eax, %eax
	movl	%eax, %ecx
	movq	%rcx, -688(%rbp)        ## 8-byte Spill
	jmp	LBB22_10
LBB22_6:
	leaq	-248(%rbp), %rax
	leaq	-608(%rbp), %rcx
	leaq	-600(%rbp), %rdx
	movl	$2, %esi
	movl	%esi, %edi
	.loc	16 587 60 is_stmt 0     ## /Applications/Xcode.app/Contents/Developer/Toolchains/XcodeDefault.xctoolchain/usr/bin/../include/c++/v1/fstream:587:60
	movq	-680(%rbp), %r8         ## 8-byte Reload
	movq	%r8, -472(%rbp)
	movq	-472(%rbp), %r8
	.loc	15 171 60 is_stmt 1     ## /Applications/Xcode.app/Contents/Developer/Toolchains/XcodeDefault.xctoolchain/usr/bin/../include/c++/v1/streambuf:171:60
Ltmp509:
	movq	32(%r8), %r8
Ltmp510:
	.loc	16 587 76               ## /Applications/Xcode.app/Contents/Developer/Toolchains/XcodeDefault.xctoolchain/usr/bin/../include/c++/v1/fstream:587:76
	movq	-680(%rbp), %r9         ## 8-byte Reload
	movq	%r9, -400(%rbp)
	movq	-400(%rbp), %r9
	.loc	15 169 60               ## /Applications/Xcode.app/Contents/Developer/Toolchains/XcodeDefault.xctoolchain/usr/bin/../include/c++/v1/streambuf:169:60
Ltmp511:
	movq	16(%r9), %r9
Ltmp512:
	.loc	16 587 74               ## /Applications/Xcode.app/Contents/Developer/Toolchains/XcodeDefault.xctoolchain/usr/bin/../include/c++/v1/fstream:587:74
	subq	%r9, %r8
	.loc	16 587 91 is_stmt 0     ## /Applications/Xcode.app/Contents/Developer/Toolchains/XcodeDefault.xctoolchain/usr/bin/../include/c++/v1/fstream:587:91
	movq	%rax, -696(%rbp)        ## 8-byte Spill
	movq	%r8, %rax
	movq	%rdx, -704(%rbp)        ## 8-byte Spill
	cqto
	idivq	%rdi
	.loc	16 587 59               ## /Applications/Xcode.app/Contents/Developer/Toolchains/XcodeDefault.xctoolchain/usr/bin/../include/c++/v1/fstream:587:59
	movq	%rax, -600(%rbp)
	.loc	16 587 96               ## /Applications/Xcode.app/Contents/Developer/Toolchains/XcodeDefault.xctoolchain/usr/bin/../include/c++/v1/fstream:587:96
	movq	$4, -608(%rbp)
	.loc	16 587 47               ## /Applications/Xcode.app/Contents/Developer/Toolchains/XcodeDefault.xctoolchain/usr/bin/../include/c++/v1/fstream:587:47
	movq	-704(%rbp), %rax        ## 8-byte Reload
	movq	%rax, -272(%rbp)
	movq	%rcx, -280(%rbp)
	.loc	64 2591 23 is_stmt 1    ## /Applications/Xcode.app/Contents/Developer/Toolchains/XcodeDefault.xctoolchain/usr/bin/../include/c++/v1/algorithm:2591:23
Ltmp513:
	movq	-272(%rbp), %rcx
	.loc	64 2591 28 is_stmt 0    ## /Applications/Xcode.app/Contents/Developer/Toolchains/XcodeDefault.xctoolchain/usr/bin/../include/c++/v1/algorithm:2591:28
	movq	-280(%rbp), %rdi
	.loc	64 2591 12              ## /Applications/Xcode.app/Contents/Developer/Toolchains/XcodeDefault.xctoolchain/usr/bin/../include/c++/v1/algorithm:2591:12
	movq	%rcx, -256(%rbp)
	movq	%rdi, -264(%rbp)
	.loc	64 2583 19 is_stmt 1    ## /Applications/Xcode.app/Contents/Developer/Toolchains/XcodeDefault.xctoolchain/usr/bin/../include/c++/v1/algorithm:2583:19
Ltmp514:
	movq	-264(%rbp), %rcx
	.loc	64 2583 24 is_stmt 0    ## /Applications/Xcode.app/Contents/Developer/Toolchains/XcodeDefault.xctoolchain/usr/bin/../include/c++/v1/algorithm:2583:24
	movq	-256(%rbp), %rdi
	.loc	64 2583 12              ## /Applications/Xcode.app/Contents/Developer/Toolchains/XcodeDefault.xctoolchain/usr/bin/../include/c++/v1/algorithm:2583:12
	movq	-696(%rbp), %r8         ## 8-byte Reload
	movq	%r8, -224(%rbp)
	movq	%rcx, -232(%rbp)
	movq	%rdi, -240(%rbp)
	.loc	64 702 67 is_stmt 1     ## /Applications/Xcode.app/Contents/Developer/Toolchains/XcodeDefault.xctoolchain/usr/bin/../include/c++/v1/algorithm:702:67
Ltmp515:
	movq	-232(%rbp), %rcx
	movq	(%rcx), %rcx
	.loc	64 702 73 is_stmt 0     ## /Applications/Xcode.app/Contents/Developer/Toolchains/XcodeDefault.xctoolchain/usr/bin/../include/c++/v1/algorithm:702:73
	movq	-240(%rbp), %rdi
	.loc	64 702 71               ## /Applications/Xcode.app/Contents/Developer/Toolchains/XcodeDefault.xctoolchain/usr/bin/../include/c++/v1/algorithm:702:71
	cmpq	(%rdi), %rcx
Ltmp516:
	.loc	64 2583 12 is_stmt 1    ## /Applications/Xcode.app/Contents/Developer/Toolchains/XcodeDefault.xctoolchain/usr/bin/../include/c++/v1/algorithm:2583:12
	jae	LBB22_8
## BB#7:
	.loc	64 2583 31 is_stmt 0    ## /Applications/Xcode.app/Contents/Developer/Toolchains/XcodeDefault.xctoolchain/usr/bin/../include/c++/v1/algorithm:2583:31
	movq	-264(%rbp), %rax
	.loc	64 2583 12              ## /Applications/Xcode.app/Contents/Developer/Toolchains/XcodeDefault.xctoolchain/usr/bin/../include/c++/v1/algorithm:2583:12
	movq	%rax, -712(%rbp)        ## 8-byte Spill
	jmp	LBB22_9
LBB22_8:
	.loc	64 2583 37              ## /Applications/Xcode.app/Contents/Developer/Toolchains/XcodeDefault.xctoolchain/usr/bin/../include/c++/v1/algorithm:2583:37
	movq	-256(%rbp), %rax
	movq	%rax, -712(%rbp)        ## 8-byte Spill
LBB22_9:
	.loc	64 2583 12              ## /Applications/Xcode.app/Contents/Developer/Toolchains/XcodeDefault.xctoolchain/usr/bin/../include/c++/v1/algorithm:2583:12
	movq	-712(%rbp), %rax        ## 8-byte Reload
Ltmp517:
	.loc	16 587 47 is_stmt 1     ## /Applications/Xcode.app/Contents/Developer/Toolchains/XcodeDefault.xctoolchain/usr/bin/../include/c++/v1/fstream:587:47
	movq	(%rax), %rax
	movq	%rax, -688(%rbp)        ## 8-byte Spill
LBB22_10:
	.loc	16 587 31 is_stmt 0     ## /Applications/Xcode.app/Contents/Developer/Toolchains/XcodeDefault.xctoolchain/usr/bin/../include/c++/v1/fstream:587:31
	movq	-688(%rbp), %rax        ## 8-byte Reload
	.loc	16 587 18               ## /Applications/Xcode.app/Contents/Developer/Toolchains/XcodeDefault.xctoolchain/usr/bin/../include/c++/v1/fstream:587:18
	movq	%rax, -592(%rbp)
	.loc	16 588 20 is_stmt 1     ## /Applications/Xcode.app/Contents/Developer/Toolchains/XcodeDefault.xctoolchain/usr/bin/../include/c++/v1/fstream:588:20
	callq	__ZNSt3__111char_traitsIcE3eofEv
	.loc	16 588 14 is_stmt 0     ## /Applications/Xcode.app/Contents/Developer/Toolchains/XcodeDefault.xctoolchain/usr/bin/../include/c++/v1/fstream:588:14
	movl	%eax, -612(%rbp)
	.loc	16 589 9 is_stmt 1      ## /Applications/Xcode.app/Contents/Developer/Toolchains/XcodeDefault.xctoolchain/usr/bin/../include/c++/v1/fstream:589:9
Ltmp518:
	movq	-680(%rbp), %rcx        ## 8-byte Reload
	movq	%rcx, -128(%rbp)
	movq	-128(%rbp), %rcx
	.loc	15 170 60               ## /Applications/Xcode.app/Contents/Developer/Toolchains/XcodeDefault.xctoolchain/usr/bin/../include/c++/v1/streambuf:170:60
Ltmp519:
	movq	24(%rcx), %rcx
Ltmp520:
	.loc	16 589 25               ## /Applications/Xcode.app/Contents/Developer/Toolchains/XcodeDefault.xctoolchain/usr/bin/../include/c++/v1/fstream:589:25
	movq	-680(%rbp), %rdx        ## 8-byte Reload
	movq	%rdx, -16(%rbp)
	movq	-16(%rbp), %rdx
	.loc	16 589 22 is_stmt 0     ## /Applications/Xcode.app/Contents/Developer/Toolchains/XcodeDefault.xctoolchain/usr/bin/../include/c++/v1/fstream:589:22
	cmpq	32(%rdx), %rcx
Ltmp521:
	.loc	16 589 9                ## /Applications/Xcode.app/Contents/Developer/Toolchains/XcodeDefault.xctoolchain/usr/bin/../include/c++/v1/fstream:589:9
	jne	LBB22_32
## BB#11:
	xorl	%eax, %eax
	movl	%eax, %ecx
	.loc	16 591 17 is_stmt 1     ## /Applications/Xcode.app/Contents/Developer/Toolchains/XcodeDefault.xctoolchain/usr/bin/../include/c++/v1/fstream:591:17
Ltmp522:
	movq	-680(%rbp), %rdx        ## 8-byte Reload
	movq	%rdx, -24(%rbp)
	movq	-24(%rbp), %rdx
	.loc	15 169 60               ## /Applications/Xcode.app/Contents/Developer/Toolchains/XcodeDefault.xctoolchain/usr/bin/../include/c++/v1/streambuf:169:60
Ltmp523:
	movq	16(%rdx), %rdi
Ltmp524:
	.loc	16 591 32               ## /Applications/Xcode.app/Contents/Developer/Toolchains/XcodeDefault.xctoolchain/usr/bin/../include/c++/v1/fstream:591:32
	movq	-680(%rbp), %rdx        ## 8-byte Reload
	movq	%rdx, -32(%rbp)
	movq	-32(%rbp), %rdx
	.loc	15 171 60               ## /Applications/Xcode.app/Contents/Developer/Toolchains/XcodeDefault.xctoolchain/usr/bin/../include/c++/v1/streambuf:171:60
Ltmp525:
	movq	32(%rdx), %rdx
Ltmp526:
	.loc	16 591 46               ## /Applications/Xcode.app/Contents/Developer/Toolchains/XcodeDefault.xctoolchain/usr/bin/../include/c++/v1/fstream:591:46
	subq	-592(%rbp), %rcx
	addq	%rcx, %rdx
	.loc	16 591 60 is_stmt 0     ## /Applications/Xcode.app/Contents/Developer/Toolchains/XcodeDefault.xctoolchain/usr/bin/../include/c++/v1/fstream:591:60
	movq	-592(%rbp), %rcx
	.loc	16 591 71               ## /Applications/Xcode.app/Contents/Developer/Toolchains/XcodeDefault.xctoolchain/usr/bin/../include/c++/v1/fstream:591:71
	shlq	$0, %rcx
	.loc	16 591 9                ## /Applications/Xcode.app/Contents/Developer/Toolchains/XcodeDefault.xctoolchain/usr/bin/../include/c++/v1/fstream:591:9
	movq	%rdx, %rsi
	movq	%rcx, %rdx
	callq	_memmove
	.loc	16 592 13 is_stmt 1     ## /Applications/Xcode.app/Contents/Developer/Toolchains/XcodeDefault.xctoolchain/usr/bin/../include/c++/v1/fstream:592:13
	movq	-680(%rbp), %rcx        ## 8-byte Reload
	testb	$1, 402(%rcx)
	je	LBB22_15
## BB#12:
	movl	$1, %eax
	movl	%eax, %esi
	.loc	16 594 50               ## /Applications/Xcode.app/Contents/Developer/Toolchains/XcodeDefault.xctoolchain/usr/bin/../include/c++/v1/fstream:594:50
Ltmp527:
	movq	-680(%rbp), %rcx        ## 8-byte Reload
	movq	%rcx, -40(%rbp)
	movq	-40(%rbp), %rcx
	.loc	15 171 60               ## /Applications/Xcode.app/Contents/Developer/Toolchains/XcodeDefault.xctoolchain/usr/bin/../include/c++/v1/streambuf:171:60
Ltmp528:
	movq	32(%rcx), %rcx
Ltmp529:
	.loc	16 594 66               ## /Applications/Xcode.app/Contents/Developer/Toolchains/XcodeDefault.xctoolchain/usr/bin/../include/c++/v1/fstream:594:66
	movq	-680(%rbp), %rdx        ## 8-byte Reload
	movq	%rdx, -48(%rbp)
	movq	-48(%rbp), %rdx
	.loc	15 169 60               ## /Applications/Xcode.app/Contents/Developer/Toolchains/XcodeDefault.xctoolchain/usr/bin/../include/c++/v1/streambuf:169:60
Ltmp530:
	movq	16(%rdx), %rdx
Ltmp531:
	.loc	16 594 64               ## /Applications/Xcode.app/Contents/Developer/Toolchains/XcodeDefault.xctoolchain/usr/bin/../include/c++/v1/fstream:594:64
	subq	%rdx, %rcx
	.loc	16 594 80 is_stmt 0     ## /Applications/Xcode.app/Contents/Developer/Toolchains/XcodeDefault.xctoolchain/usr/bin/../include/c++/v1/fstream:594:80
	subq	-592(%rbp), %rcx
	.loc	16 594 20               ## /Applications/Xcode.app/Contents/Developer/Toolchains/XcodeDefault.xctoolchain/usr/bin/../include/c++/v1/fstream:594:20
	movq	%rcx, -624(%rbp)
	.loc	16 595 29 is_stmt 1     ## /Applications/Xcode.app/Contents/Developer/Toolchains/XcodeDefault.xctoolchain/usr/bin/../include/c++/v1/fstream:595:29
	movq	-680(%rbp), %rcx        ## 8-byte Reload
	movq	%rcx, -56(%rbp)
	movq	-56(%rbp), %rcx
	.loc	15 169 60               ## /Applications/Xcode.app/Contents/Developer/Toolchains/XcodeDefault.xctoolchain/usr/bin/../include/c++/v1/streambuf:169:60
Ltmp532:
	movq	16(%rcx), %rcx
Ltmp533:
	.loc	16 595 43               ## /Applications/Xcode.app/Contents/Developer/Toolchains/XcodeDefault.xctoolchain/usr/bin/../include/c++/v1/fstream:595:43
	addq	-592(%rbp), %rcx
	.loc	16 595 60 is_stmt 0     ## /Applications/Xcode.app/Contents/Developer/Toolchains/XcodeDefault.xctoolchain/usr/bin/../include/c++/v1/fstream:595:60
	movq	-624(%rbp), %rdx
	.loc	16 595 69               ## /Applications/Xcode.app/Contents/Developer/Toolchains/XcodeDefault.xctoolchain/usr/bin/../include/c++/v1/fstream:595:69
	movq	-680(%rbp), %rdi        ## 8-byte Reload
	movq	120(%rdi), %r8
	.loc	16 595 23               ## /Applications/Xcode.app/Contents/Developer/Toolchains/XcodeDefault.xctoolchain/usr/bin/../include/c++/v1/fstream:595:23
	movq	%rcx, %rdi
	movq	%r8, %rcx
	callq	_fread
	.loc	16 595 21               ## /Applications/Xcode.app/Contents/Developer/Toolchains/XcodeDefault.xctoolchain/usr/bin/../include/c++/v1/fstream:595:21
	movq	%rax, -624(%rbp)
	.loc	16 596 25 is_stmt 1     ## /Applications/Xcode.app/Contents/Developer/Toolchains/XcodeDefault.xctoolchain/usr/bin/../include/c++/v1/fstream:596:25
Ltmp534:
	cmpq	$0, -624(%rbp)
Ltmp535:
	.loc	16 596 17 is_stmt 0     ## /Applications/Xcode.app/Contents/Developer/Toolchains/XcodeDefault.xctoolchain/usr/bin/../include/c++/v1/fstream:596:17
	je	LBB22_14
## BB#13:
	.loc	16 598 17 is_stmt 1     ## /Applications/Xcode.app/Contents/Developer/Toolchains/XcodeDefault.xctoolchain/usr/bin/../include/c++/v1/fstream:598:17
Ltmp536:
	movq	-680(%rbp), %rax        ## 8-byte Reload
	.loc	16 598 28 is_stmt 0     ## /Applications/Xcode.app/Contents/Developer/Toolchains/XcodeDefault.xctoolchain/usr/bin/../include/c++/v1/fstream:598:28
	movq	-680(%rbp), %rcx        ## 8-byte Reload
	movq	%rcx, -64(%rbp)
	movq	-64(%rbp), %rcx
	.loc	15 169 60 is_stmt 1     ## /Applications/Xcode.app/Contents/Developer/Toolchains/XcodeDefault.xctoolchain/usr/bin/../include/c++/v1/streambuf:169:60
Ltmp537:
	movq	16(%rcx), %rcx
Ltmp538:
	.loc	16 599 28               ## /Applications/Xcode.app/Contents/Developer/Toolchains/XcodeDefault.xctoolchain/usr/bin/../include/c++/v1/fstream:599:28
	movq	-680(%rbp), %rdx        ## 8-byte Reload
	movq	%rdx, -72(%rbp)
	movq	-72(%rbp), %rdx
	.loc	15 169 60               ## /Applications/Xcode.app/Contents/Developer/Toolchains/XcodeDefault.xctoolchain/usr/bin/../include/c++/v1/streambuf:169:60
Ltmp539:
	movq	16(%rdx), %rdx
Ltmp540:
	.loc	16 599 42               ## /Applications/Xcode.app/Contents/Developer/Toolchains/XcodeDefault.xctoolchain/usr/bin/../include/c++/v1/fstream:599:42
	addq	-592(%rbp), %rdx
	.loc	16 600 28               ## /Applications/Xcode.app/Contents/Developer/Toolchains/XcodeDefault.xctoolchain/usr/bin/../include/c++/v1/fstream:600:28
	movq	-680(%rbp), %rsi        ## 8-byte Reload
	movq	%rsi, -80(%rbp)
	movq	-80(%rbp), %rsi
	.loc	15 169 60               ## /Applications/Xcode.app/Contents/Developer/Toolchains/XcodeDefault.xctoolchain/usr/bin/../include/c++/v1/streambuf:169:60
Ltmp541:
	movq	16(%rsi), %rsi
Ltmp542:
	.loc	16 600 42               ## /Applications/Xcode.app/Contents/Developer/Toolchains/XcodeDefault.xctoolchain/usr/bin/../include/c++/v1/fstream:600:42
	addq	-592(%rbp), %rsi
	.loc	16 600 55 is_stmt 0     ## /Applications/Xcode.app/Contents/Developer/Toolchains/XcodeDefault.xctoolchain/usr/bin/../include/c++/v1/fstream:600:55
	addq	-624(%rbp), %rsi
	.loc	16 598 17 is_stmt 1     ## /Applications/Xcode.app/Contents/Developer/Toolchains/XcodeDefault.xctoolchain/usr/bin/../include/c++/v1/fstream:598:17
	movq	%rax, -88(%rbp)
	movq	%rcx, -96(%rbp)
	movq	%rdx, -104(%rbp)
	movq	%rsi, -112(%rbp)
	movq	-88(%rbp), %rax
	.loc	15 427 15               ## /Applications/Xcode.app/Contents/Developer/Toolchains/XcodeDefault.xctoolchain/usr/bin/../include/c++/v1/streambuf:427:15
Ltmp543:
	movq	-96(%rbp), %rcx
	.loc	15 427 13 is_stmt 0     ## /Applications/Xcode.app/Contents/Developer/Toolchains/XcodeDefault.xctoolchain/usr/bin/../include/c++/v1/streambuf:427:13
	movq	%rcx, 16(%rax)
	.loc	15 428 15 is_stmt 1     ## /Applications/Xcode.app/Contents/Developer/Toolchains/XcodeDefault.xctoolchain/usr/bin/../include/c++/v1/streambuf:428:15
	movq	-104(%rbp), %rcx
	.loc	15 428 13 is_stmt 0     ## /Applications/Xcode.app/Contents/Developer/Toolchains/XcodeDefault.xctoolchain/usr/bin/../include/c++/v1/streambuf:428:13
	movq	%rcx, 24(%rax)
	.loc	15 429 15 is_stmt 1     ## /Applications/Xcode.app/Contents/Developer/Toolchains/XcodeDefault.xctoolchain/usr/bin/../include/c++/v1/streambuf:429:15
	movq	-112(%rbp), %rcx
	.loc	15 429 13 is_stmt 0     ## /Applications/Xcode.app/Contents/Developer/Toolchains/XcodeDefault.xctoolchain/usr/bin/../include/c++/v1/streambuf:429:13
	movq	%rcx, 32(%rax)
Ltmp544:
	.loc	16 601 49 is_stmt 1     ## /Applications/Xcode.app/Contents/Developer/Toolchains/XcodeDefault.xctoolchain/usr/bin/../include/c++/v1/fstream:601:49
	movq	-680(%rbp), %rax        ## 8-byte Reload
	movq	%rax, -120(%rbp)
	movq	-120(%rbp), %rax
	.loc	15 170 60               ## /Applications/Xcode.app/Contents/Developer/Toolchains/XcodeDefault.xctoolchain/usr/bin/../include/c++/v1/streambuf:170:60
Ltmp545:
	movq	24(%rax), %rax
Ltmp546:
	.loc	16 601 23               ## /Applications/Xcode.app/Contents/Developer/Toolchains/XcodeDefault.xctoolchain/usr/bin/../include/c++/v1/fstream:601:23
	movsbl	(%rax), %edi
	callq	__ZNSt3__111char_traitsIcE11to_int_typeEc
	.loc	16 601 21 is_stmt 0     ## /Applications/Xcode.app/Contents/Developer/Toolchains/XcodeDefault.xctoolchain/usr/bin/../include/c++/v1/fstream:601:21
	movl	%eax, -612(%rbp)
Ltmp547:
LBB22_14:
	.loc	16 603 9 is_stmt 1      ## /Applications/Xcode.app/Contents/Developer/Toolchains/XcodeDefault.xctoolchain/usr/bin/../include/c++/v1/fstream:603:9
	jmp	LBB22_31
Ltmp548:
LBB22_15:
	.loc	16 606 21               ## /Applications/Xcode.app/Contents/Developer/Toolchains/XcodeDefault.xctoolchain/usr/bin/../include/c++/v1/fstream:606:21
	movq	-680(%rbp), %rax        ## 8-byte Reload
	movq	64(%rax), %rdi
	.loc	16 606 32 is_stmt 0     ## /Applications/Xcode.app/Contents/Developer/Toolchains/XcodeDefault.xctoolchain/usr/bin/../include/c++/v1/fstream:606:32
	movq	72(%rax), %rsi
	.loc	16 606 47               ## /Applications/Xcode.app/Contents/Developer/Toolchains/XcodeDefault.xctoolchain/usr/bin/../include/c++/v1/fstream:606:47
	movq	80(%rax), %rcx
	.loc	16 606 62               ## /Applications/Xcode.app/Contents/Developer/Toolchains/XcodeDefault.xctoolchain/usr/bin/../include/c++/v1/fstream:606:62
	movq	72(%rax), %rdx
	.loc	16 606 60               ## /Applications/Xcode.app/Contents/Developer/Toolchains/XcodeDefault.xctoolchain/usr/bin/../include/c++/v1/fstream:606:60
	subq	%rdx, %rcx
	.loc	16 606 13               ## /Applications/Xcode.app/Contents/Developer/Toolchains/XcodeDefault.xctoolchain/usr/bin/../include/c++/v1/fstream:606:13
	movq	%rcx, %rdx
	callq	_memmove
	.loc	16 607 29 is_stmt 1     ## /Applications/Xcode.app/Contents/Developer/Toolchains/XcodeDefault.xctoolchain/usr/bin/../include/c++/v1/fstream:607:29
	movq	-680(%rbp), %rax        ## 8-byte Reload
	movq	64(%rax), %rcx
	.loc	16 607 42 is_stmt 0     ## /Applications/Xcode.app/Contents/Developer/Toolchains/XcodeDefault.xctoolchain/usr/bin/../include/c++/v1/fstream:607:42
	movq	80(%rax), %rdx
	.loc	16 607 57               ## /Applications/Xcode.app/Contents/Developer/Toolchains/XcodeDefault.xctoolchain/usr/bin/../include/c++/v1/fstream:607:57
	movq	72(%rax), %rsi
	.loc	16 607 55               ## /Applications/Xcode.app/Contents/Developer/Toolchains/XcodeDefault.xctoolchain/usr/bin/../include/c++/v1/fstream:607:55
	subq	%rsi, %rdx
	.loc	16 607 39               ## /Applications/Xcode.app/Contents/Developer/Toolchains/XcodeDefault.xctoolchain/usr/bin/../include/c++/v1/fstream:607:39
	addq	%rdx, %rcx
	.loc	16 607 27               ## /Applications/Xcode.app/Contents/Developer/Toolchains/XcodeDefault.xctoolchain/usr/bin/../include/c++/v1/fstream:607:27
	movq	%rcx, 72(%rax)
	.loc	16 608 28 is_stmt 1     ## /Applications/Xcode.app/Contents/Developer/Toolchains/XcodeDefault.xctoolchain/usr/bin/../include/c++/v1/fstream:608:28
	movq	64(%rax), %rcx
	.loc	16 608 41 is_stmt 0     ## /Applications/Xcode.app/Contents/Developer/Toolchains/XcodeDefault.xctoolchain/usr/bin/../include/c++/v1/fstream:608:41
	movq	64(%rax), %rdx
	.loc	16 608 54               ## /Applications/Xcode.app/Contents/Developer/Toolchains/XcodeDefault.xctoolchain/usr/bin/../include/c++/v1/fstream:608:54
	addq	$88, %rax
	.loc	16 608 51               ## /Applications/Xcode.app/Contents/Developer/Toolchains/XcodeDefault.xctoolchain/usr/bin/../include/c++/v1/fstream:608:51
	cmpq	%rax, %rdx
	.loc	16 608 41               ## /Applications/Xcode.app/Contents/Developer/Toolchains/XcodeDefault.xctoolchain/usr/bin/../include/c++/v1/fstream:608:41
	movq	%rcx, -720(%rbp)        ## 8-byte Spill
	jne	LBB22_17
## BB#16:
	movl	$8, %eax
	movl	%eax, %ecx
	movq	%rcx, -728(%rbp)        ## 8-byte Spill
	jmp	LBB22_18
LBB22_17:
	.loc	16 608 94               ## /Applications/Xcode.app/Contents/Developer/Toolchains/XcodeDefault.xctoolchain/usr/bin/../include/c++/v1/fstream:608:94
	movq	-680(%rbp), %rax        ## 8-byte Reload
	movq	96(%rax), %rcx
	movq	%rcx, -728(%rbp)        ## 8-byte Spill
LBB22_18:
	.loc	16 608 41               ## /Applications/Xcode.app/Contents/Developer/Toolchains/XcodeDefault.xctoolchain/usr/bin/../include/c++/v1/fstream:608:41
	movq	-728(%rbp), %rax        ## 8-byte Reload
	leaq	-160(%rbp), %rcx
	leaq	-648(%rbp), %rdx
	leaq	-640(%rbp), %rsi
	.loc	16 608 38               ## /Applications/Xcode.app/Contents/Developer/Toolchains/XcodeDefault.xctoolchain/usr/bin/../include/c++/v1/fstream:608:38
	movq	-720(%rbp), %rdi        ## 8-byte Reload
	addq	%rax, %rdi
	.loc	16 608 26               ## /Applications/Xcode.app/Contents/Developer/Toolchains/XcodeDefault.xctoolchain/usr/bin/../include/c++/v1/fstream:608:26
	movq	-680(%rbp), %rax        ## 8-byte Reload
	movq	%rdi, 80(%rax)
	.loc	16 609 61 is_stmt 1     ## /Applications/Xcode.app/Contents/Developer/Toolchains/XcodeDefault.xctoolchain/usr/bin/../include/c++/v1/fstream:609:61
	movq	112(%rax), %rdi
	.loc	16 609 68 is_stmt 0     ## /Applications/Xcode.app/Contents/Developer/Toolchains/XcodeDefault.xctoolchain/usr/bin/../include/c++/v1/fstream:609:68
	subq	-592(%rbp), %rdi
	.loc	16 609 41               ## /Applications/Xcode.app/Contents/Developer/Toolchains/XcodeDefault.xctoolchain/usr/bin/../include/c++/v1/fstream:609:41
	movq	%rdi, -640(%rbp)
	.loc	16 610 54 is_stmt 1     ## /Applications/Xcode.app/Contents/Developer/Toolchains/XcodeDefault.xctoolchain/usr/bin/../include/c++/v1/fstream:610:54
	movq	80(%rax), %rdi
	.loc	16 610 69 is_stmt 0     ## /Applications/Xcode.app/Contents/Developer/Toolchains/XcodeDefault.xctoolchain/usr/bin/../include/c++/v1/fstream:610:69
	movq	72(%rax), %r8
	.loc	16 610 67               ## /Applications/Xcode.app/Contents/Developer/Toolchains/XcodeDefault.xctoolchain/usr/bin/../include/c++/v1/fstream:610:67
	subq	%r8, %rdi
	.loc	16 610 34               ## /Applications/Xcode.app/Contents/Developer/Toolchains/XcodeDefault.xctoolchain/usr/bin/../include/c++/v1/fstream:610:34
	movq	%rdi, -648(%rbp)
	.loc	16 609 30 is_stmt 1     ## /Applications/Xcode.app/Contents/Developer/Toolchains/XcodeDefault.xctoolchain/usr/bin/../include/c++/v1/fstream:609:30
	movq	%rsi, -184(%rbp)
	movq	%rdx, -192(%rbp)
	.loc	64 2591 23              ## /Applications/Xcode.app/Contents/Developer/Toolchains/XcodeDefault.xctoolchain/usr/bin/../include/c++/v1/algorithm:2591:23
Ltmp549:
	movq	-184(%rbp), %rdx
	.loc	64 2591 28 is_stmt 0    ## /Applications/Xcode.app/Contents/Developer/Toolchains/XcodeDefault.xctoolchain/usr/bin/../include/c++/v1/algorithm:2591:28
	movq	-192(%rbp), %rsi
	.loc	64 2591 12              ## /Applications/Xcode.app/Contents/Developer/Toolchains/XcodeDefault.xctoolchain/usr/bin/../include/c++/v1/algorithm:2591:12
	movq	%rdx, -168(%rbp)
	movq	%rsi, -176(%rbp)
	.loc	64 2583 19 is_stmt 1    ## /Applications/Xcode.app/Contents/Developer/Toolchains/XcodeDefault.xctoolchain/usr/bin/../include/c++/v1/algorithm:2583:19
Ltmp550:
	movq	-176(%rbp), %rdx
	.loc	64 2583 24 is_stmt 0    ## /Applications/Xcode.app/Contents/Developer/Toolchains/XcodeDefault.xctoolchain/usr/bin/../include/c++/v1/algorithm:2583:24
	movq	-168(%rbp), %rsi
	.loc	64 2583 12              ## /Applications/Xcode.app/Contents/Developer/Toolchains/XcodeDefault.xctoolchain/usr/bin/../include/c++/v1/algorithm:2583:12
	movq	%rcx, -136(%rbp)
	movq	%rdx, -144(%rbp)
	movq	%rsi, -152(%rbp)
	.loc	64 702 67 is_stmt 1     ## /Applications/Xcode.app/Contents/Developer/Toolchains/XcodeDefault.xctoolchain/usr/bin/../include/c++/v1/algorithm:702:67
Ltmp551:
	movq	-144(%rbp), %rcx
	movq	(%rcx), %rcx
	.loc	64 702 73 is_stmt 0     ## /Applications/Xcode.app/Contents/Developer/Toolchains/XcodeDefault.xctoolchain/usr/bin/../include/c++/v1/algorithm:702:73
	movq	-152(%rbp), %rdx
	.loc	64 702 71               ## /Applications/Xcode.app/Contents/Developer/Toolchains/XcodeDefault.xctoolchain/usr/bin/../include/c++/v1/algorithm:702:71
	cmpq	(%rdx), %rcx
Ltmp552:
	.loc	64 2583 12 is_stmt 1    ## /Applications/Xcode.app/Contents/Developer/Toolchains/XcodeDefault.xctoolchain/usr/bin/../include/c++/v1/algorithm:2583:12
	jae	LBB22_20
## BB#19:
	.loc	64 2583 31 is_stmt 0    ## /Applications/Xcode.app/Contents/Developer/Toolchains/XcodeDefault.xctoolchain/usr/bin/../include/c++/v1/algorithm:2583:31
	movq	-176(%rbp), %rax
	.loc	64 2583 12              ## /Applications/Xcode.app/Contents/Developer/Toolchains/XcodeDefault.xctoolchain/usr/bin/../include/c++/v1/algorithm:2583:12
	movq	%rax, -736(%rbp)        ## 8-byte Spill
	jmp	LBB22_21
LBB22_20:
	.loc	64 2583 37              ## /Applications/Xcode.app/Contents/Developer/Toolchains/XcodeDefault.xctoolchain/usr/bin/../include/c++/v1/algorithm:2583:37
	movq	-168(%rbp), %rax
	movq	%rax, -736(%rbp)        ## 8-byte Spill
LBB22_21:
	.loc	64 2583 12              ## /Applications/Xcode.app/Contents/Developer/Toolchains/XcodeDefault.xctoolchain/usr/bin/../include/c++/v1/algorithm:2583:12
	movq	-736(%rbp), %rax        ## 8-byte Reload
	movl	$1, %ecx
	movl	%ecx, %esi
	movl	$128, %ecx
	movl	%ecx, %edx
Ltmp553:
	.loc	16 609 30 is_stmt 1     ## /Applications/Xcode.app/Contents/Developer/Toolchains/XcodeDefault.xctoolchain/usr/bin/../include/c++/v1/fstream:609:30
	movq	(%rax), %rax
	.loc	16 609 20 is_stmt 0     ## /Applications/Xcode.app/Contents/Developer/Toolchains/XcodeDefault.xctoolchain/usr/bin/../include/c++/v1/fstream:609:20
	movq	%rax, -632(%rbp)
	.loc	16 612 13 is_stmt 1     ## /Applications/Xcode.app/Contents/Developer/Toolchains/XcodeDefault.xctoolchain/usr/bin/../include/c++/v1/fstream:612:13
	movq	-680(%rbp), %rax        ## 8-byte Reload
	addq	$264, %rax              ## imm = 0x108
	.loc	16 612 26 is_stmt 0     ## /Applications/Xcode.app/Contents/Developer/Toolchains/XcodeDefault.xctoolchain/usr/bin/../include/c++/v1/fstream:612:26
	movq	-680(%rbp), %rdi        ## 8-byte Reload
	addq	$136, %rdi
	.loc	16 612 24               ## /Applications/Xcode.app/Contents/Developer/Toolchains/XcodeDefault.xctoolchain/usr/bin/../include/c++/v1/fstream:612:24
	movq	%rdi, -744(%rbp)        ## 8-byte Spill
	movq	%rax, %rdi
	movq	-744(%rbp), %rax        ## 8-byte Reload
	movq	%rsi, -752(%rbp)        ## 8-byte Spill
	movq	%rax, %rsi
	callq	_memcpy
	.loc	16 613 40 is_stmt 1     ## /Applications/Xcode.app/Contents/Developer/Toolchains/XcodeDefault.xctoolchain/usr/bin/../include/c++/v1/fstream:613:40
	movq	-680(%rbp), %rax        ## 8-byte Reload
	movq	72(%rax), %rdi
	.loc	16 613 58 is_stmt 0     ## /Applications/Xcode.app/Contents/Developer/Toolchains/XcodeDefault.xctoolchain/usr/bin/../include/c++/v1/fstream:613:58
	movq	-632(%rbp), %rdx
	.loc	16 613 67               ## /Applications/Xcode.app/Contents/Developer/Toolchains/XcodeDefault.xctoolchain/usr/bin/../include/c++/v1/fstream:613:67
	movq	120(%rax), %rcx
	.loc	16 613 27               ## /Applications/Xcode.app/Contents/Developer/Toolchains/XcodeDefault.xctoolchain/usr/bin/../include/c++/v1/fstream:613:27
	movq	-752(%rbp), %rsi        ## 8-byte Reload
	callq	_fread
	.loc	16 613 20               ## /Applications/Xcode.app/Contents/Developer/Toolchains/XcodeDefault.xctoolchain/usr/bin/../include/c++/v1/fstream:613:20
	movq	%rax, -664(%rbp)
	.loc	16 614 22 is_stmt 1     ## /Applications/Xcode.app/Contents/Developer/Toolchains/XcodeDefault.xctoolchain/usr/bin/../include/c++/v1/fstream:614:22
Ltmp554:
	cmpq	$0, -664(%rbp)
Ltmp555:
	.loc	16 614 17 is_stmt 0     ## /Applications/Xcode.app/Contents/Developer/Toolchains/XcodeDefault.xctoolchain/usr/bin/../include/c++/v1/fstream:614:17
	je	LBB22_30
## BB#22:
	.loc	16 617 22 is_stmt 1     ## /Applications/Xcode.app/Contents/Developer/Toolchains/XcodeDefault.xctoolchain/usr/bin/../include/c++/v1/fstream:617:22
Ltmp556:
	movq	-680(%rbp), %rax        ## 8-byte Reload
	cmpq	$0, 128(%rax)
Ltmp557:
	.loc	16 617 21 is_stmt 0     ## /Applications/Xcode.app/Contents/Developer/Toolchains/XcodeDefault.xctoolchain/usr/bin/../include/c++/v1/fstream:617:21
	jne	LBB22_24
## BB#23:
	movl	$8, %eax
	movl	%eax, %edi
	.loc	16 618 21 is_stmt 1     ## /Applications/Xcode.app/Contents/Developer/Toolchains/XcodeDefault.xctoolchain/usr/bin/../include/c++/v1/fstream:618:21
Ltmp558:
	callq	___cxa_allocate_exception
	movq	%rax, %rdi
	.loc	16 618 27 is_stmt 0     ## /Applications/Xcode.app/Contents/Developer/Toolchains/XcodeDefault.xctoolchain/usr/bin/../include/c++/v1/fstream:618:27
	movq	%rax, -760(%rbp)        ## 8-byte Spill
	callq	__ZNSt8bad_castC1Ev
	movq	__ZTISt8bad_cast@GOTPCREL(%rip), %rax
	movq	__ZNSt8bad_castD1Ev@GOTPCREL(%rip), %rdi
	.loc	16 618 21               ## /Applications/Xcode.app/Contents/Developer/Toolchains/XcodeDefault.xctoolchain/usr/bin/../include/c++/v1/fstream:618:21
	movq	-760(%rbp), %rcx        ## 8-byte Reload
	movq	%rdi, -768(%rbp)        ## 8-byte Spill
	movq	%rcx, %rdi
	movq	%rax, %rsi
	movq	-768(%rbp), %rdx        ## 8-byte Reload
	callq	___cxa_throw
Ltmp559:
LBB22_24:
	leaq	-672(%rbp), %rax
	.loc	16 620 32 is_stmt 1     ## /Applications/Xcode.app/Contents/Developer/Toolchains/XcodeDefault.xctoolchain/usr/bin/../include/c++/v1/fstream:620:32
	movq	-680(%rbp), %rcx        ## 8-byte Reload
	movq	72(%rcx), %rdx
	.loc	16 620 46 is_stmt 0     ## /Applications/Xcode.app/Contents/Developer/Toolchains/XcodeDefault.xctoolchain/usr/bin/../include/c++/v1/fstream:620:46
	addq	-664(%rbp), %rdx
	.loc	16 620 30               ## /Applications/Xcode.app/Contents/Developer/Toolchains/XcodeDefault.xctoolchain/usr/bin/../include/c++/v1/fstream:620:30
	movq	%rdx, 80(%rcx)
Ltmp560:
	##DEBUG_VALUE: __inext <- %RAX
	.loc	16 622 23 is_stmt 1     ## /Applications/Xcode.app/Contents/Developer/Toolchains/XcodeDefault.xctoolchain/usr/bin/../include/c++/v1/fstream:622:23
	movq	128(%rcx), %rdx
	.loc	16 622 33 is_stmt 0     ## /Applications/Xcode.app/Contents/Developer/Toolchains/XcodeDefault.xctoolchain/usr/bin/../include/c++/v1/fstream:622:33
	addq	$136, %rcx
	.loc	16 622 40               ## /Applications/Xcode.app/Contents/Developer/Toolchains/XcodeDefault.xctoolchain/usr/bin/../include/c++/v1/fstream:622:40
	movq	-680(%rbp), %rsi        ## 8-byte Reload
	movq	64(%rsi), %rdi
	.loc	16 622 51               ## /Applications/Xcode.app/Contents/Developer/Toolchains/XcodeDefault.xctoolchain/usr/bin/../include/c++/v1/fstream:622:51
	movq	80(%rsi), %r8
	.loc	16 622 65               ## /Applications/Xcode.app/Contents/Developer/Toolchains/XcodeDefault.xctoolchain/usr/bin/../include/c++/v1/fstream:622:65
	addq	$72, %rsi
	.loc	16 623 40 is_stmt 1     ## /Applications/Xcode.app/Contents/Developer/Toolchains/XcodeDefault.xctoolchain/usr/bin/../include/c++/v1/fstream:623:40
	movq	-680(%rbp), %r9         ## 8-byte Reload
	movq	%r9, -208(%rbp)
	movq	-208(%rbp), %r9
	.loc	15 169 60               ## /Applications/Xcode.app/Contents/Developer/Toolchains/XcodeDefault.xctoolchain/usr/bin/../include/c++/v1/streambuf:169:60
Ltmp561:
	movq	16(%r9), %r9
Ltmp562:
	.loc	16 623 54               ## /Applications/Xcode.app/Contents/Developer/Toolchains/XcodeDefault.xctoolchain/usr/bin/../include/c++/v1/fstream:623:54
	addq	-592(%rbp), %r9
	.loc	16 624 40               ## /Applications/Xcode.app/Contents/Developer/Toolchains/XcodeDefault.xctoolchain/usr/bin/../include/c++/v1/fstream:624:40
	movq	-680(%rbp), %r10        ## 8-byte Reload
	movq	%r10, -216(%rbp)
	movq	-216(%rbp), %r10
	.loc	15 169 60               ## /Applications/Xcode.app/Contents/Developer/Toolchains/XcodeDefault.xctoolchain/usr/bin/../include/c++/v1/streambuf:169:60
Ltmp563:
	movq	16(%r10), %r10
Ltmp564:
	.loc	16 624 54               ## /Applications/Xcode.app/Contents/Developer/Toolchains/XcodeDefault.xctoolchain/usr/bin/../include/c++/v1/fstream:624:54
	movq	-680(%rbp), %r11        ## 8-byte Reload
	addq	112(%r11), %r10
	.loc	16 622 23               ## /Applications/Xcode.app/Contents/Developer/Toolchains/XcodeDefault.xctoolchain/usr/bin/../include/c++/v1/fstream:622:23
	movq	%rdx, -296(%rbp)
	movq	%rcx, -304(%rbp)
	movq	%rdi, -312(%rbp)
	movq	%r8, -320(%rbp)
	movq	%rsi, -328(%rbp)
	movq	%r9, -336(%rbp)
	movq	%r10, -344(%rbp)
	movq	%rax, -352(%rbp)
	movq	-296(%rbp), %rax
Ltmp565:
	.loc	7 855 16                ## /Applications/Xcode.app/Contents/Developer/Toolchains/XcodeDefault.xctoolchain/usr/bin/../include/c++/v1/__locale:855:16
	movq	(%rax), %rcx
	movq	32(%rcx), %rcx
	.loc	7 855 22 is_stmt 0      ## /Applications/Xcode.app/Contents/Developer/Toolchains/XcodeDefault.xctoolchain/usr/bin/../include/c++/v1/__locale:855:22
	movq	-304(%rbp), %rsi
	.loc	7 855 28                ## /Applications/Xcode.app/Contents/Developer/Toolchains/XcodeDefault.xctoolchain/usr/bin/../include/c++/v1/__locale:855:28
	movq	-312(%rbp), %rdx
	.loc	7 855 35                ## /Applications/Xcode.app/Contents/Developer/Toolchains/XcodeDefault.xctoolchain/usr/bin/../include/c++/v1/__locale:855:35
	movq	-320(%rbp), %rdi
	.loc	7 855 46                ## /Applications/Xcode.app/Contents/Developer/Toolchains/XcodeDefault.xctoolchain/usr/bin/../include/c++/v1/__locale:855:46
	movq	-328(%rbp), %r8
	.loc	7 855 57                ## /Applications/Xcode.app/Contents/Developer/Toolchains/XcodeDefault.xctoolchain/usr/bin/../include/c++/v1/__locale:855:57
	movq	-336(%rbp), %r9
	.loc	7 855 63                ## /Applications/Xcode.app/Contents/Developer/Toolchains/XcodeDefault.xctoolchain/usr/bin/../include/c++/v1/__locale:855:63
	movq	-344(%rbp), %r10
	.loc	7 855 73                ## /Applications/Xcode.app/Contents/Developer/Toolchains/XcodeDefault.xctoolchain/usr/bin/../include/c++/v1/__locale:855:73
	movq	-352(%rbp), %rbx
	.loc	7 855 16                ## /Applications/Xcode.app/Contents/Developer/Toolchains/XcodeDefault.xctoolchain/usr/bin/../include/c++/v1/__locale:855:16
	movq	%rdi, -776(%rbp)        ## 8-byte Spill
	movq	%rax, %rdi
	movq	-776(%rbp), %rax        ## 8-byte Reload
	movq	%rcx, -784(%rbp)        ## 8-byte Spill
	movq	%rax, %rcx
	movq	%r10, (%rsp)
	movq	%rbx, 8(%rsp)
	movq	-784(%rbp), %r10        ## 8-byte Reload
	callq	*%r10
Ltmp566:
	.loc	16 622 21 is_stmt 1     ## /Applications/Xcode.app/Contents/Developer/Toolchains/XcodeDefault.xctoolchain/usr/bin/../include/c++/v1/fstream:622:21
	movl	%eax, -652(%rbp)
	.loc	16 625 25               ## /Applications/Xcode.app/Contents/Developer/Toolchains/XcodeDefault.xctoolchain/usr/bin/../include/c++/v1/fstream:625:25
Ltmp567:
	cmpl	$3, -652(%rbp)
Ltmp568:
	.loc	16 625 21 is_stmt 0     ## /Applications/Xcode.app/Contents/Developer/Toolchains/XcodeDefault.xctoolchain/usr/bin/../include/c++/v1/fstream:625:21
	jne	LBB22_26
## BB#25:
	.loc	16 627 21 is_stmt 1     ## /Applications/Xcode.app/Contents/Developer/Toolchains/XcodeDefault.xctoolchain/usr/bin/../include/c++/v1/fstream:627:21
Ltmp569:
	movq	-680(%rbp), %rax        ## 8-byte Reload
	.loc	16 627 44 is_stmt 0     ## /Applications/Xcode.app/Contents/Developer/Toolchains/XcodeDefault.xctoolchain/usr/bin/../include/c++/v1/fstream:627:44
	movq	-680(%rbp), %rcx        ## 8-byte Reload
	movq	64(%rcx), %rdx
	.loc	16 627 67               ## /Applications/Xcode.app/Contents/Developer/Toolchains/XcodeDefault.xctoolchain/usr/bin/../include/c++/v1/fstream:627:67
	movq	64(%rcx), %rsi
	.loc	16 627 90               ## /Applications/Xcode.app/Contents/Developer/Toolchains/XcodeDefault.xctoolchain/usr/bin/../include/c++/v1/fstream:627:90
	movq	80(%rcx), %rdi
	.loc	16 627 21               ## /Applications/Xcode.app/Contents/Developer/Toolchains/XcodeDefault.xctoolchain/usr/bin/../include/c++/v1/fstream:627:21
	movq	%rax, -360(%rbp)
	movq	%rdx, -368(%rbp)
	movq	%rsi, -376(%rbp)
	movq	%rdi, -384(%rbp)
	movq	-360(%rbp), %rax
	.loc	15 427 15 is_stmt 1     ## /Applications/Xcode.app/Contents/Developer/Toolchains/XcodeDefault.xctoolchain/usr/bin/../include/c++/v1/streambuf:427:15
Ltmp570:
	movq	-368(%rbp), %rdx
	.loc	15 427 13 is_stmt 0     ## /Applications/Xcode.app/Contents/Developer/Toolchains/XcodeDefault.xctoolchain/usr/bin/../include/c++/v1/streambuf:427:13
	movq	%rdx, 16(%rax)
	.loc	15 428 15 is_stmt 1     ## /Applications/Xcode.app/Contents/Developer/Toolchains/XcodeDefault.xctoolchain/usr/bin/../include/c++/v1/streambuf:428:15
	movq	-376(%rbp), %rdx
	.loc	15 428 13 is_stmt 0     ## /Applications/Xcode.app/Contents/Developer/Toolchains/XcodeDefault.xctoolchain/usr/bin/../include/c++/v1/streambuf:428:13
	movq	%rdx, 24(%rax)
	.loc	15 429 15 is_stmt 1     ## /Applications/Xcode.app/Contents/Developer/Toolchains/XcodeDefault.xctoolchain/usr/bin/../include/c++/v1/streambuf:429:15
	movq	-384(%rbp), %rdx
	.loc	15 429 13 is_stmt 0     ## /Applications/Xcode.app/Contents/Developer/Toolchains/XcodeDefault.xctoolchain/usr/bin/../include/c++/v1/streambuf:429:13
	movq	%rdx, 32(%rax)
Ltmp571:
	.loc	16 628 53 is_stmt 1     ## /Applications/Xcode.app/Contents/Developer/Toolchains/XcodeDefault.xctoolchain/usr/bin/../include/c++/v1/fstream:628:53
	movq	%rcx, -392(%rbp)
	movq	-392(%rbp), %rax
	.loc	15 170 60               ## /Applications/Xcode.app/Contents/Developer/Toolchains/XcodeDefault.xctoolchain/usr/bin/../include/c++/v1/streambuf:170:60
Ltmp572:
	movq	24(%rax), %rax
Ltmp573:
	.loc	16 628 27               ## /Applications/Xcode.app/Contents/Developer/Toolchains/XcodeDefault.xctoolchain/usr/bin/../include/c++/v1/fstream:628:27
	movsbl	(%rax), %edi
	callq	__ZNSt3__111char_traitsIcE11to_int_typeEc
	.loc	16 628 25 is_stmt 0     ## /Applications/Xcode.app/Contents/Developer/Toolchains/XcodeDefault.xctoolchain/usr/bin/../include/c++/v1/fstream:628:25
	movl	%eax, -612(%rbp)
	.loc	16 629 17 is_stmt 1     ## /Applications/Xcode.app/Contents/Developer/Toolchains/XcodeDefault.xctoolchain/usr/bin/../include/c++/v1/fstream:629:17
	jmp	LBB22_29
Ltmp574:
LBB22_26:
	.loc	16 630 26               ## /Applications/Xcode.app/Contents/Developer/Toolchains/XcodeDefault.xctoolchain/usr/bin/../include/c++/v1/fstream:630:26
	movq	-672(%rbp), %rax
	.loc	16 630 37 is_stmt 0     ## /Applications/Xcode.app/Contents/Developer/Toolchains/XcodeDefault.xctoolchain/usr/bin/../include/c++/v1/fstream:630:37
	movq	-680(%rbp), %rcx        ## 8-byte Reload
	movq	%rcx, -408(%rbp)
	movq	-408(%rbp), %rcx
	.loc	15 169 60 is_stmt 1     ## /Applications/Xcode.app/Contents/Developer/Toolchains/XcodeDefault.xctoolchain/usr/bin/../include/c++/v1/streambuf:169:60
Ltmp575:
	movq	16(%rcx), %rcx
Ltmp576:
	.loc	16 630 51               ## /Applications/Xcode.app/Contents/Developer/Toolchains/XcodeDefault.xctoolchain/usr/bin/../include/c++/v1/fstream:630:51
	addq	-592(%rbp), %rcx
	.loc	16 630 34 is_stmt 0     ## /Applications/Xcode.app/Contents/Developer/Toolchains/XcodeDefault.xctoolchain/usr/bin/../include/c++/v1/fstream:630:34
	cmpq	%rcx, %rax
Ltmp577:
	.loc	16 630 26               ## /Applications/Xcode.app/Contents/Developer/Toolchains/XcodeDefault.xctoolchain/usr/bin/../include/c++/v1/fstream:630:26
	je	LBB22_28
## BB#27:
	.loc	16 632 21 is_stmt 1     ## /Applications/Xcode.app/Contents/Developer/Toolchains/XcodeDefault.xctoolchain/usr/bin/../include/c++/v1/fstream:632:21
Ltmp578:
	movq	-680(%rbp), %rax        ## 8-byte Reload
	.loc	16 632 32 is_stmt 0     ## /Applications/Xcode.app/Contents/Developer/Toolchains/XcodeDefault.xctoolchain/usr/bin/../include/c++/v1/fstream:632:32
	movq	-680(%rbp), %rcx        ## 8-byte Reload
	movq	%rcx, -416(%rbp)
	movq	-416(%rbp), %rcx
	.loc	15 169 60 is_stmt 1     ## /Applications/Xcode.app/Contents/Developer/Toolchains/XcodeDefault.xctoolchain/usr/bin/../include/c++/v1/streambuf:169:60
Ltmp579:
	movq	16(%rcx), %rcx
Ltmp580:
	.loc	16 632 47               ## /Applications/Xcode.app/Contents/Developer/Toolchains/XcodeDefault.xctoolchain/usr/bin/../include/c++/v1/fstream:632:47
	movq	-680(%rbp), %rdx        ## 8-byte Reload
	movq	%rdx, -424(%rbp)
	movq	-424(%rbp), %rdx
	.loc	15 169 60               ## /Applications/Xcode.app/Contents/Developer/Toolchains/XcodeDefault.xctoolchain/usr/bin/../include/c++/v1/streambuf:169:60
Ltmp581:
	movq	16(%rdx), %rdx
Ltmp582:
	.loc	16 632 61               ## /Applications/Xcode.app/Contents/Developer/Toolchains/XcodeDefault.xctoolchain/usr/bin/../include/c++/v1/fstream:632:61
	addq	-592(%rbp), %rdx
	.loc	16 632 75 is_stmt 0     ## /Applications/Xcode.app/Contents/Developer/Toolchains/XcodeDefault.xctoolchain/usr/bin/../include/c++/v1/fstream:632:75
	movq	-672(%rbp), %rsi
	.loc	16 632 21               ## /Applications/Xcode.app/Contents/Developer/Toolchains/XcodeDefault.xctoolchain/usr/bin/../include/c++/v1/fstream:632:21
	movq	%rax, -432(%rbp)
	movq	%rcx, -440(%rbp)
	movq	%rdx, -448(%rbp)
	movq	%rsi, -456(%rbp)
	movq	-432(%rbp), %rax
	.loc	15 427 15 is_stmt 1     ## /Applications/Xcode.app/Contents/Developer/Toolchains/XcodeDefault.xctoolchain/usr/bin/../include/c++/v1/streambuf:427:15
Ltmp583:
	movq	-440(%rbp), %rcx
	.loc	15 427 13 is_stmt 0     ## /Applications/Xcode.app/Contents/Developer/Toolchains/XcodeDefault.xctoolchain/usr/bin/../include/c++/v1/streambuf:427:13
	movq	%rcx, 16(%rax)
	.loc	15 428 15 is_stmt 1     ## /Applications/Xcode.app/Contents/Developer/Toolchains/XcodeDefault.xctoolchain/usr/bin/../include/c++/v1/streambuf:428:15
	movq	-448(%rbp), %rcx
	.loc	15 428 13 is_stmt 0     ## /Applications/Xcode.app/Contents/Developer/Toolchains/XcodeDefault.xctoolchain/usr/bin/../include/c++/v1/streambuf:428:13
	movq	%rcx, 24(%rax)
	.loc	15 429 15 is_stmt 1     ## /Applications/Xcode.app/Contents/Developer/Toolchains/XcodeDefault.xctoolchain/usr/bin/../include/c++/v1/streambuf:429:15
	movq	-456(%rbp), %rcx
	.loc	15 429 13 is_stmt 0     ## /Applications/Xcode.app/Contents/Developer/Toolchains/XcodeDefault.xctoolchain/usr/bin/../include/c++/v1/streambuf:429:13
	movq	%rcx, 32(%rax)
Ltmp584:
	.loc	16 633 53 is_stmt 1     ## /Applications/Xcode.app/Contents/Developer/Toolchains/XcodeDefault.xctoolchain/usr/bin/../include/c++/v1/fstream:633:53
	movq	-680(%rbp), %rax        ## 8-byte Reload
	movq	%rax, -464(%rbp)
	movq	-464(%rbp), %rax
	.loc	15 170 60               ## /Applications/Xcode.app/Contents/Developer/Toolchains/XcodeDefault.xctoolchain/usr/bin/../include/c++/v1/streambuf:170:60
Ltmp585:
	movq	24(%rax), %rax
Ltmp586:
	.loc	16 633 27               ## /Applications/Xcode.app/Contents/Developer/Toolchains/XcodeDefault.xctoolchain/usr/bin/../include/c++/v1/fstream:633:27
	movsbl	(%rax), %edi
	callq	__ZNSt3__111char_traitsIcE11to_int_typeEc
	.loc	16 633 25 is_stmt 0     ## /Applications/Xcode.app/Contents/Developer/Toolchains/XcodeDefault.xctoolchain/usr/bin/../include/c++/v1/fstream:633:25
	movl	%eax, -612(%rbp)
Ltmp587:
LBB22_28:
	jmp	LBB22_29
LBB22_29:
	.loc	16 635 13 is_stmt 1     ## /Applications/Xcode.app/Contents/Developer/Toolchains/XcodeDefault.xctoolchain/usr/bin/../include/c++/v1/fstream:635:13
	jmp	LBB22_30
Ltmp588:
LBB22_30:
	jmp	LBB22_31
LBB22_31:
	.loc	16 637 5                ## /Applications/Xcode.app/Contents/Developer/Toolchains/XcodeDefault.xctoolchain/usr/bin/../include/c++/v1/fstream:637:5
	jmp	LBB22_33
Ltmp589:
LBB22_32:
	.loc	16 639 41               ## /Applications/Xcode.app/Contents/Developer/Toolchains/XcodeDefault.xctoolchain/usr/bin/../include/c++/v1/fstream:639:41
	movq	-680(%rbp), %rax        ## 8-byte Reload
	movq	%rax, -480(%rbp)
	movq	-480(%rbp), %rax
	.loc	15 170 60               ## /Applications/Xcode.app/Contents/Developer/Toolchains/XcodeDefault.xctoolchain/usr/bin/../include/c++/v1/streambuf:170:60
Ltmp590:
	movq	24(%rax), %rax
Ltmp591:
	.loc	16 639 15               ## /Applications/Xcode.app/Contents/Developer/Toolchains/XcodeDefault.xctoolchain/usr/bin/../include/c++/v1/fstream:639:15
	movsbl	(%rax), %edi
	callq	__ZNSt3__111char_traitsIcE11to_int_typeEc
	.loc	16 639 13 is_stmt 0     ## /Applications/Xcode.app/Contents/Developer/Toolchains/XcodeDefault.xctoolchain/usr/bin/../include/c++/v1/fstream:639:13
	movl	%eax, -612(%rbp)
Ltmp592:
LBB22_33:
	leaq	-578(%rbp), %rax
	.loc	16 640 9 is_stmt 1      ## /Applications/Xcode.app/Contents/Developer/Toolchains/XcodeDefault.xctoolchain/usr/bin/../include/c++/v1/fstream:640:9
Ltmp593:
	movq	-680(%rbp), %rcx        ## 8-byte Reload
	movq	%rcx, -520(%rbp)
	movq	-520(%rbp), %rcx
	.loc	16 640 23 is_stmt 0     ## /Applications/Xcode.app/Contents/Developer/Toolchains/XcodeDefault.xctoolchain/usr/bin/../include/c++/v1/fstream:640:23
	cmpq	%rax, 16(%rcx)
Ltmp594:
	.loc	16 640 9                ## /Applications/Xcode.app/Contents/Developer/Toolchains/XcodeDefault.xctoolchain/usr/bin/../include/c++/v1/fstream:640:9
	jne	LBB22_35
## BB#34:
	.loc	16 641 9 is_stmt 1      ## /Applications/Xcode.app/Contents/Developer/Toolchains/XcodeDefault.xctoolchain/usr/bin/../include/c++/v1/fstream:641:9
Ltmp595:
	movq	-680(%rbp), %rax        ## 8-byte Reload
	movq	%rax, -528(%rbp)
	movq	$0, -536(%rbp)
	movq	$0, -544(%rbp)
	movq	$0, -552(%rbp)
	movq	-528(%rbp), %rax
	.loc	15 427 15               ## /Applications/Xcode.app/Contents/Developer/Toolchains/XcodeDefault.xctoolchain/usr/bin/../include/c++/v1/streambuf:427:15
Ltmp596:
	movq	-536(%rbp), %rcx
	.loc	15 427 13 is_stmt 0     ## /Applications/Xcode.app/Contents/Developer/Toolchains/XcodeDefault.xctoolchain/usr/bin/../include/c++/v1/streambuf:427:13
	movq	%rcx, 16(%rax)
	.loc	15 428 15 is_stmt 1     ## /Applications/Xcode.app/Contents/Developer/Toolchains/XcodeDefault.xctoolchain/usr/bin/../include/c++/v1/streambuf:428:15
	movq	-544(%rbp), %rcx
	.loc	15 428 13 is_stmt 0     ## /Applications/Xcode.app/Contents/Developer/Toolchains/XcodeDefault.xctoolchain/usr/bin/../include/c++/v1/streambuf:428:13
	movq	%rcx, 24(%rax)
	.loc	15 429 15 is_stmt 1     ## /Applications/Xcode.app/Contents/Developer/Toolchains/XcodeDefault.xctoolchain/usr/bin/../include/c++/v1/streambuf:429:15
	movq	-552(%rbp), %rcx
	.loc	15 429 13 is_stmt 0     ## /Applications/Xcode.app/Contents/Developer/Toolchains/XcodeDefault.xctoolchain/usr/bin/../include/c++/v1/streambuf:429:13
	movq	%rcx, 32(%rax)
Ltmp597:
LBB22_35:
	.loc	16 642 12 is_stmt 1     ## /Applications/Xcode.app/Contents/Developer/Toolchains/XcodeDefault.xctoolchain/usr/bin/../include/c++/v1/fstream:642:12
	movl	-612(%rbp), %eax
	.loc	16 642 5 is_stmt 0      ## /Applications/Xcode.app/Contents/Developer/Toolchains/XcodeDefault.xctoolchain/usr/bin/../include/c++/v1/fstream:642:5
	movl	%eax, -564(%rbp)
LBB22_36:
	.loc	16 643 1 is_stmt 1      ## /Applications/Xcode.app/Contents/Developer/Toolchains/XcodeDefault.xctoolchain/usr/bin/../include/c++/v1/fstream:643:1
	movl	-564(%rbp), %eax
	addq	$792, %rsp              ## imm = 0x318
	popq	%rbx
	popq	%rbp
	retq
Ltmp598:
Lfunc_end22:
	.cfi_endproc

	.globl	__ZNSt3__113basic_filebufIcNS_11char_traitsIcEEE9pbackfailEi
	.weak_def_can_be_hidden	__ZNSt3__113basic_filebufIcNS_11char_traitsIcEEE9pbackfailEi
	.align	4, 0x90
__ZNSt3__113basic_filebufIcNS_11char_traitsIcEEE9pbackfailEi: ## @_ZNSt3__113basic_filebufIcNS_11char_traitsIcEEE9pbackfailEi
Lfunc_begin23:
	.loc	16 648 0                ## /Applications/Xcode.app/Contents/Developer/Toolchains/XcodeDefault.xctoolchain/usr/bin/../include/c++/v1/fstream:648:0
	.cfi_startproc
## BB#0:
	pushq	%rbp
Ltmp599:
	.cfi_def_cfa_offset 16
Ltmp600:
	.cfi_offset %rbp, -16
	movq	%rsp, %rbp
Ltmp601:
	.cfi_def_cfa_register %rbp
	subq	$112, %rsp
	movq	%rdi, -80(%rbp)
	movl	%esi, -84(%rbp)
	movq	-80(%rbp), %rdi
	.loc	16 649 9 prologue_end   ## /Applications/Xcode.app/Contents/Developer/Toolchains/XcodeDefault.xctoolchain/usr/bin/../include/c++/v1/fstream:649:9
Ltmp602:
	cmpq	$0, 120(%rdi)
	.loc	16 649 17 is_stmt 0     ## /Applications/Xcode.app/Contents/Developer/Toolchains/XcodeDefault.xctoolchain/usr/bin/../include/c++/v1/fstream:649:17
	movq	%rdi, -96(%rbp)         ## 8-byte Spill
	je	LBB23_8
## BB#1:
	.loc	16 649 20               ## /Applications/Xcode.app/Contents/Developer/Toolchains/XcodeDefault.xctoolchain/usr/bin/../include/c++/v1/fstream:649:20
	movq	-96(%rbp), %rax         ## 8-byte Reload
	movq	%rax, -64(%rbp)
	movq	-64(%rbp), %rax
	.loc	15 169 60 is_stmt 1     ## /Applications/Xcode.app/Contents/Developer/Toolchains/XcodeDefault.xctoolchain/usr/bin/../include/c++/v1/streambuf:169:60
Ltmp603:
	movq	16(%rax), %rax
Ltmp604:
	.loc	16 649 36               ## /Applications/Xcode.app/Contents/Developer/Toolchains/XcodeDefault.xctoolchain/usr/bin/../include/c++/v1/fstream:649:36
	movq	-96(%rbp), %rcx         ## 8-byte Reload
	movq	%rcx, -56(%rbp)
	movq	-56(%rbp), %rcx
	.loc	16 649 34 is_stmt 0     ## /Applications/Xcode.app/Contents/Developer/Toolchains/XcodeDefault.xctoolchain/usr/bin/../include/c++/v1/fstream:649:34
	cmpq	24(%rcx), %rax
Ltmp605:
	.loc	16 649 9                ## /Applications/Xcode.app/Contents/Developer/Toolchains/XcodeDefault.xctoolchain/usr/bin/../include/c++/v1/fstream:649:9
	jae	LBB23_8
## BB#2:
	.loc	16 651 38 is_stmt 1     ## /Applications/Xcode.app/Contents/Developer/Toolchains/XcodeDefault.xctoolchain/usr/bin/../include/c++/v1/fstream:651:38
Ltmp606:
	movl	-84(%rbp), %edi
	.loc	16 651 43 is_stmt 0     ## /Applications/Xcode.app/Contents/Developer/Toolchains/XcodeDefault.xctoolchain/usr/bin/../include/c++/v1/fstream:651:43
	movl	%edi, -100(%rbp)        ## 4-byte Spill
	callq	__ZNSt3__111char_traitsIcE3eofEv
	.loc	16 651 13               ## /Applications/Xcode.app/Contents/Developer/Toolchains/XcodeDefault.xctoolchain/usr/bin/../include/c++/v1/fstream:651:13
	movl	-100(%rbp), %edi        ## 4-byte Reload
	movl	%eax, %esi
	callq	__ZNSt3__111char_traitsIcE11eq_int_typeEii
Ltmp607:
	.loc	16 651 13               ## /Applications/Xcode.app/Contents/Developer/Toolchains/XcodeDefault.xctoolchain/usr/bin/../include/c++/v1/fstream:651:13
	testb	$1, %al
	jne	LBB23_3
	jmp	LBB23_4
LBB23_3:
	.loc	16 653 13 is_stmt 1     ## /Applications/Xcode.app/Contents/Developer/Toolchains/XcodeDefault.xctoolchain/usr/bin/../include/c++/v1/fstream:653:13
Ltmp608:
	movq	-96(%rbp), %rax         ## 8-byte Reload
	movq	%rax, -32(%rbp)
	movl	$-1, -36(%rbp)
	movq	-32(%rbp), %rax
	.loc	15 418 16               ## /Applications/Xcode.app/Contents/Developer/Toolchains/XcodeDefault.xctoolchain/usr/bin/../include/c++/v1/streambuf:418:16
Ltmp609:
	movl	-36(%rbp), %ecx
	.loc	15 418 13 is_stmt 0     ## /Applications/Xcode.app/Contents/Developer/Toolchains/XcodeDefault.xctoolchain/usr/bin/../include/c++/v1/streambuf:418:13
	movq	24(%rax), %rdx
	movslq	%ecx, %rsi
	addq	%rsi, %rdx
	movq	%rdx, 24(%rax)
Ltmp610:
	.loc	16 654 41 is_stmt 1     ## /Applications/Xcode.app/Contents/Developer/Toolchains/XcodeDefault.xctoolchain/usr/bin/../include/c++/v1/fstream:654:41
	movl	-84(%rbp), %edi
	.loc	16 654 20 is_stmt 0     ## /Applications/Xcode.app/Contents/Developer/Toolchains/XcodeDefault.xctoolchain/usr/bin/../include/c++/v1/fstream:654:20
	callq	__ZNSt3__111char_traitsIcE7not_eofEi
	.loc	16 654 13               ## /Applications/Xcode.app/Contents/Developer/Toolchains/XcodeDefault.xctoolchain/usr/bin/../include/c++/v1/fstream:654:13
	movl	%eax, -68(%rbp)
	jmp	LBB23_9
Ltmp611:
LBB23_4:
	.loc	16 656 14 is_stmt 1     ## /Applications/Xcode.app/Contents/Developer/Toolchains/XcodeDefault.xctoolchain/usr/bin/../include/c++/v1/fstream:656:14
	movq	-96(%rbp), %rax         ## 8-byte Reload
	movl	392(%rax), %ecx
	.loc	16 656 20 is_stmt 0     ## /Applications/Xcode.app/Contents/Developer/Toolchains/XcodeDefault.xctoolchain/usr/bin/../include/c++/v1/fstream:656:20
	andl	$16, %ecx
	.loc	16 656 13               ## /Applications/Xcode.app/Contents/Developer/Toolchains/XcodeDefault.xctoolchain/usr/bin/../include/c++/v1/fstream:656:13
	cmpl	$0, %ecx
	.loc	16 656 37               ## /Applications/Xcode.app/Contents/Developer/Toolchains/XcodeDefault.xctoolchain/usr/bin/../include/c++/v1/fstream:656:37
	jne	LBB23_6
## BB#5:
	.loc	16 657 55 is_stmt 1     ## /Applications/Xcode.app/Contents/Developer/Toolchains/XcodeDefault.xctoolchain/usr/bin/../include/c++/v1/fstream:657:55
	movl	-84(%rbp), %edi
	.loc	16 657 29 is_stmt 0     ## /Applications/Xcode.app/Contents/Developer/Toolchains/XcodeDefault.xctoolchain/usr/bin/../include/c++/v1/fstream:657:29
	callq	__ZNSt3__111char_traitsIcE12to_char_typeEi
	.loc	16 657 61               ## /Applications/Xcode.app/Contents/Developer/Toolchains/XcodeDefault.xctoolchain/usr/bin/../include/c++/v1/fstream:657:61
	movq	-96(%rbp), %rcx         ## 8-byte Reload
	movq	%rcx, -8(%rbp)
	movq	-8(%rbp), %rcx
	.loc	15 170 60 is_stmt 1     ## /Applications/Xcode.app/Contents/Developer/Toolchains/XcodeDefault.xctoolchain/usr/bin/../include/c++/v1/streambuf:170:60
Ltmp612:
	movq	24(%rcx), %rcx
Ltmp613:
	.loc	16 657 13               ## /Applications/Xcode.app/Contents/Developer/Toolchains/XcodeDefault.xctoolchain/usr/bin/../include/c++/v1/fstream:657:13
	movsbl	%al, %edi
	movsbl	-1(%rcx), %esi
	callq	__ZNSt3__111char_traitsIcE2eqEcc
Ltmp614:
	.loc	16 656 13               ## /Applications/Xcode.app/Contents/Developer/Toolchains/XcodeDefault.xctoolchain/usr/bin/../include/c++/v1/fstream:656:13
	testb	$1, %al
	jne	LBB23_6
	jmp	LBB23_7
LBB23_6:
	.loc	16 659 13               ## /Applications/Xcode.app/Contents/Developer/Toolchains/XcodeDefault.xctoolchain/usr/bin/../include/c++/v1/fstream:659:13
Ltmp615:
	movq	-96(%rbp), %rax         ## 8-byte Reload
	movq	%rax, -16(%rbp)
	movl	$-1, -20(%rbp)
	movq	-16(%rbp), %rax
	.loc	15 418 16               ## /Applications/Xcode.app/Contents/Developer/Toolchains/XcodeDefault.xctoolchain/usr/bin/../include/c++/v1/streambuf:418:16
Ltmp616:
	movl	-20(%rbp), %ecx
